
ctarget:     file format elf64-x86-64


Disassembly of section .init:

0000000000400c48 <_init>:
  400c48:	48 83 ec 08          	sub    $0x8,%rsp
  400c4c:	48 8b 05 a5 33 20 00 	mov    0x2033a5(%rip),%rax        # 603ff8 <_DYNAMIC+0x1d8>
  400c53:	48 85 c0             	test   %rax,%rax
  400c56:	74 02                	je     400c5a <_init+0x12>
  400c58:	ff d0                	callq  *%rax
  400c5a:	48 83 c4 08          	add    $0x8,%rsp
  400c5e:	c3                   	retq   

Disassembly of section .plt:

0000000000400c60 <strcasecmp@plt-0x10>:
  400c60:	ff 35 a2 33 20 00    	pushq  0x2033a2(%rip)        # 604008 <_GLOBAL_OFFSET_TABLE_+0x8>
  400c66:	ff 25 a4 33 20 00    	jmpq   *0x2033a4(%rip)        # 604010 <_GLOBAL_OFFSET_TABLE_+0x10>
  400c6c:	0f 1f 40 00          	nopl   0x0(%rax)

0000000000400c70 <strcasecmp@plt>:
  400c70:	ff 25 a2 33 20 00    	jmpq   *0x2033a2(%rip)        # 604018 <_GLOBAL_OFFSET_TABLE_+0x18>
  400c76:	68 00 00 00 00       	pushq  $0x0
  400c7b:	e9 e0 ff ff ff       	jmpq   400c60 <_init+0x18>

0000000000400c80 <__errno_location@plt>:
  400c80:	ff 25 9a 33 20 00    	jmpq   *0x20339a(%rip)        # 604020 <_GLOBAL_OFFSET_TABLE_+0x20>
  400c86:	68 01 00 00 00       	pushq  $0x1
  400c8b:	e9 d0 ff ff ff       	jmpq   400c60 <_init+0x18>

0000000000400c90 <srandom@plt>:
  400c90:	ff 25 92 33 20 00    	jmpq   *0x203392(%rip)        # 604028 <_GLOBAL_OFFSET_TABLE_+0x28>
  400c96:	68 02 00 00 00       	pushq  $0x2
  400c9b:	e9 c0 ff ff ff       	jmpq   400c60 <_init+0x18>

0000000000400ca0 <strncmp@plt>:
  400ca0:	ff 25 8a 33 20 00    	jmpq   *0x20338a(%rip)        # 604030 <_GLOBAL_OFFSET_TABLE_+0x30>
  400ca6:	68 03 00 00 00       	pushq  $0x3
  400cab:	e9 b0 ff ff ff       	jmpq   400c60 <_init+0x18>

0000000000400cb0 <strcpy@plt>:
  400cb0:	ff 25 82 33 20 00    	jmpq   *0x203382(%rip)        # 604038 <_GLOBAL_OFFSET_TABLE_+0x38>
  400cb6:	68 04 00 00 00       	pushq  $0x4
  400cbb:	e9 a0 ff ff ff       	jmpq   400c60 <_init+0x18>

0000000000400cc0 <puts@plt>:
  400cc0:	ff 25 7a 33 20 00    	jmpq   *0x20337a(%rip)        # 604040 <_GLOBAL_OFFSET_TABLE_+0x40>
  400cc6:	68 05 00 00 00       	pushq  $0x5
  400ccb:	e9 90 ff ff ff       	jmpq   400c60 <_init+0x18>

0000000000400cd0 <write@plt>:
  400cd0:	ff 25 72 33 20 00    	jmpq   *0x203372(%rip)        # 604048 <_GLOBAL_OFFSET_TABLE_+0x48>
  400cd6:	68 06 00 00 00       	pushq  $0x6
  400cdb:	e9 80 ff ff ff       	jmpq   400c60 <_init+0x18>

0000000000400ce0 <__stack_chk_fail@plt>:
  400ce0:	ff 25 6a 33 20 00    	jmpq   *0x20336a(%rip)        # 604050 <_GLOBAL_OFFSET_TABLE_+0x50>
  400ce6:	68 07 00 00 00       	pushq  $0x7
  400ceb:	e9 70 ff ff ff       	jmpq   400c60 <_init+0x18>

0000000000400cf0 <mmap@plt>:
  400cf0:	ff 25 62 33 20 00    	jmpq   *0x203362(%rip)        # 604058 <_GLOBAL_OFFSET_TABLE_+0x58>
  400cf6:	68 08 00 00 00       	pushq  $0x8
  400cfb:	e9 60 ff ff ff       	jmpq   400c60 <_init+0x18>

0000000000400d00 <memset@plt>:
  400d00:	ff 25 5a 33 20 00    	jmpq   *0x20335a(%rip)        # 604060 <_GLOBAL_OFFSET_TABLE_+0x60>
  400d06:	68 09 00 00 00       	pushq  $0x9
  400d0b:	e9 50 ff ff ff       	jmpq   400c60 <_init+0x18>

0000000000400d10 <alarm@plt>:
  400d10:	ff 25 52 33 20 00    	jmpq   *0x203352(%rip)        # 604068 <_GLOBAL_OFFSET_TABLE_+0x68>
  400d16:	68 0a 00 00 00       	pushq  $0xa
  400d1b:	e9 40 ff ff ff       	jmpq   400c60 <_init+0x18>

0000000000400d20 <close@plt>:
  400d20:	ff 25 4a 33 20 00    	jmpq   *0x20334a(%rip)        # 604070 <_GLOBAL_OFFSET_TABLE_+0x70>
  400d26:	68 0b 00 00 00       	pushq  $0xb
  400d2b:	e9 30 ff ff ff       	jmpq   400c60 <_init+0x18>

0000000000400d30 <read@plt>:
  400d30:	ff 25 42 33 20 00    	jmpq   *0x203342(%rip)        # 604078 <_GLOBAL_OFFSET_TABLE_+0x78>
  400d36:	68 0c 00 00 00       	pushq  $0xc
  400d3b:	e9 20 ff ff ff       	jmpq   400c60 <_init+0x18>

0000000000400d40 <signal@plt>:
  400d40:	ff 25 3a 33 20 00    	jmpq   *0x20333a(%rip)        # 604080 <_GLOBAL_OFFSET_TABLE_+0x80>
  400d46:	68 0d 00 00 00       	pushq  $0xd
  400d4b:	e9 10 ff ff ff       	jmpq   400c60 <_init+0x18>

0000000000400d50 <gethostbyname@plt>:
  400d50:	ff 25 32 33 20 00    	jmpq   *0x203332(%rip)        # 604088 <_GLOBAL_OFFSET_TABLE_+0x88>
  400d56:	68 0e 00 00 00       	pushq  $0xe
  400d5b:	e9 00 ff ff ff       	jmpq   400c60 <_init+0x18>

0000000000400d60 <__memmove_chk@plt>:
  400d60:	ff 25 2a 33 20 00    	jmpq   *0x20332a(%rip)        # 604090 <_GLOBAL_OFFSET_TABLE_+0x90>
  400d66:	68 0f 00 00 00       	pushq  $0xf
  400d6b:	e9 f0 fe ff ff       	jmpq   400c60 <_init+0x18>

0000000000400d70 <strtol@plt>:
  400d70:	ff 25 22 33 20 00    	jmpq   *0x203322(%rip)        # 604098 <_GLOBAL_OFFSET_TABLE_+0x98>
  400d76:	68 10 00 00 00       	pushq  $0x10
  400d7b:	e9 e0 fe ff ff       	jmpq   400c60 <_init+0x18>

0000000000400d80 <memcpy@plt>:
  400d80:	ff 25 1a 33 20 00    	jmpq   *0x20331a(%rip)        # 6040a0 <_GLOBAL_OFFSET_TABLE_+0xa0>
  400d86:	68 11 00 00 00       	pushq  $0x11
  400d8b:	e9 d0 fe ff ff       	jmpq   400c60 <_init+0x18>

0000000000400d90 <time@plt>:
  400d90:	ff 25 12 33 20 00    	jmpq   *0x203312(%rip)        # 6040a8 <_GLOBAL_OFFSET_TABLE_+0xa8>
  400d96:	68 12 00 00 00       	pushq  $0x12
  400d9b:	e9 c0 fe ff ff       	jmpq   400c60 <_init+0x18>

0000000000400da0 <random@plt>:
  400da0:	ff 25 0a 33 20 00    	jmpq   *0x20330a(%rip)        # 6040b0 <_GLOBAL_OFFSET_TABLE_+0xb0>
  400da6:	68 13 00 00 00       	pushq  $0x13
  400dab:	e9 b0 fe ff ff       	jmpq   400c60 <_init+0x18>

0000000000400db0 <_IO_getc@plt>:
  400db0:	ff 25 02 33 20 00    	jmpq   *0x203302(%rip)        # 6040b8 <_GLOBAL_OFFSET_TABLE_+0xb8>
  400db6:	68 14 00 00 00       	pushq  $0x14
  400dbb:	e9 a0 fe ff ff       	jmpq   400c60 <_init+0x18>

0000000000400dc0 <__isoc99_sscanf@plt>:
  400dc0:	ff 25 fa 32 20 00    	jmpq   *0x2032fa(%rip)        # 6040c0 <_GLOBAL_OFFSET_TABLE_+0xc0>
  400dc6:	68 15 00 00 00       	pushq  $0x15
  400dcb:	e9 90 fe ff ff       	jmpq   400c60 <_init+0x18>

0000000000400dd0 <munmap@plt>:
  400dd0:	ff 25 f2 32 20 00    	jmpq   *0x2032f2(%rip)        # 6040c8 <_GLOBAL_OFFSET_TABLE_+0xc8>
  400dd6:	68 16 00 00 00       	pushq  $0x16
  400ddb:	e9 80 fe ff ff       	jmpq   400c60 <_init+0x18>

0000000000400de0 <__printf_chk@plt>:
  400de0:	ff 25 ea 32 20 00    	jmpq   *0x2032ea(%rip)        # 6040d0 <_GLOBAL_OFFSET_TABLE_+0xd0>
  400de6:	68 17 00 00 00       	pushq  $0x17
  400deb:	e9 70 fe ff ff       	jmpq   400c60 <_init+0x18>

0000000000400df0 <fopen@plt>:
  400df0:	ff 25 e2 32 20 00    	jmpq   *0x2032e2(%rip)        # 6040d8 <_GLOBAL_OFFSET_TABLE_+0xd8>
  400df6:	68 18 00 00 00       	pushq  $0x18
  400dfb:	e9 60 fe ff ff       	jmpq   400c60 <_init+0x18>

0000000000400e00 <getopt@plt>:
  400e00:	ff 25 da 32 20 00    	jmpq   *0x2032da(%rip)        # 6040e0 <_GLOBAL_OFFSET_TABLE_+0xe0>
  400e06:	68 19 00 00 00       	pushq  $0x19
  400e0b:	e9 50 fe ff ff       	jmpq   400c60 <_init+0x18>

0000000000400e10 <strtoul@plt>:
  400e10:	ff 25 d2 32 20 00    	jmpq   *0x2032d2(%rip)        # 6040e8 <_GLOBAL_OFFSET_TABLE_+0xe8>
  400e16:	68 1a 00 00 00       	pushq  $0x1a
  400e1b:	e9 40 fe ff ff       	jmpq   400c60 <_init+0x18>

0000000000400e20 <gethostname@plt>:
  400e20:	ff 25 ca 32 20 00    	jmpq   *0x2032ca(%rip)        # 6040f0 <_GLOBAL_OFFSET_TABLE_+0xf0>
  400e26:	68 1b 00 00 00       	pushq  $0x1b
  400e2b:	e9 30 fe ff ff       	jmpq   400c60 <_init+0x18>

0000000000400e30 <exit@plt>:
  400e30:	ff 25 c2 32 20 00    	jmpq   *0x2032c2(%rip)        # 6040f8 <_GLOBAL_OFFSET_TABLE_+0xf8>
  400e36:	68 1c 00 00 00       	pushq  $0x1c
  400e3b:	e9 20 fe ff ff       	jmpq   400c60 <_init+0x18>

0000000000400e40 <connect@plt>:
  400e40:	ff 25 ba 32 20 00    	jmpq   *0x2032ba(%rip)        # 604100 <_GLOBAL_OFFSET_TABLE_+0x100>
  400e46:	68 1d 00 00 00       	pushq  $0x1d
  400e4b:	e9 10 fe ff ff       	jmpq   400c60 <_init+0x18>

0000000000400e50 <__fprintf_chk@plt>:
  400e50:	ff 25 b2 32 20 00    	jmpq   *0x2032b2(%rip)        # 604108 <_GLOBAL_OFFSET_TABLE_+0x108>
  400e56:	68 1e 00 00 00       	pushq  $0x1e
  400e5b:	e9 00 fe ff ff       	jmpq   400c60 <_init+0x18>

0000000000400e60 <__sprintf_chk@plt>:
  400e60:	ff 25 aa 32 20 00    	jmpq   *0x2032aa(%rip)        # 604110 <_GLOBAL_OFFSET_TABLE_+0x110>
  400e66:	68 1f 00 00 00       	pushq  $0x1f
  400e6b:	e9 f0 fd ff ff       	jmpq   400c60 <_init+0x18>

0000000000400e70 <socket@plt>:
  400e70:	ff 25 a2 32 20 00    	jmpq   *0x2032a2(%rip)        # 604118 <_GLOBAL_OFFSET_TABLE_+0x118>
  400e76:	68 20 00 00 00       	pushq  $0x20
  400e7b:	e9 e0 fd ff ff       	jmpq   400c60 <_init+0x18>

Disassembly of section .text:

0000000000400e80 <_start>:
  400e80:	31 ed                	xor    %ebp,%ebp
  400e82:	49 89 d1             	mov    %rdx,%r9
  400e85:	5e                   	pop    %rsi
  400e86:	48 89 e2             	mov    %rsp,%rdx
  400e89:	48 83 e4 f0          	and    $0xfffffffffffffff0,%rsp
  400e8d:	50                   	push   %rax
  400e8e:	54                   	push   %rsp
  400e8f:	49 c7 c0 60 2e 40 00 	mov    $0x402e60,%r8
  400e96:	48 c7 c1 f0 2d 40 00 	mov    $0x402df0,%rcx
  400e9d:	48 c7 c7 73 11 40 00 	mov    $0x401173,%rdi
  400ea4:	ff 15 46 31 20 00    	callq  *0x203146(%rip)        # 603ff0 <_DYNAMIC+0x1d0>
  400eaa:	f4                   	hlt    
  400eab:	0f 1f 44 00 00       	nopl   0x0(%rax,%rax,1)

0000000000400eb0 <_dl_relocate_static_pie>:
  400eb0:	f3 c3                	repz retq 
  400eb2:	66 2e 0f 1f 84 00 00 	nopw   %cs:0x0(%rax,%rax,1)
  400eb9:	00 00 00 
  400ebc:	0f 1f 40 00          	nopl   0x0(%rax)

0000000000400ec0 <deregister_tm_clones>:
  400ec0:	55                   	push   %rbp
  400ec1:	b8 90 44 60 00       	mov    $0x604490,%eax
  400ec6:	48 3d 90 44 60 00    	cmp    $0x604490,%rax
  400ecc:	48 89 e5             	mov    %rsp,%rbp
  400ecf:	74 17                	je     400ee8 <deregister_tm_clones+0x28>
  400ed1:	b8 00 00 00 00       	mov    $0x0,%eax
  400ed6:	48 85 c0             	test   %rax,%rax
  400ed9:	74 0d                	je     400ee8 <deregister_tm_clones+0x28>
  400edb:	5d                   	pop    %rbp
  400edc:	bf 90 44 60 00       	mov    $0x604490,%edi
  400ee1:	ff e0                	jmpq   *%rax
  400ee3:	0f 1f 44 00 00       	nopl   0x0(%rax,%rax,1)
  400ee8:	5d                   	pop    %rbp
  400ee9:	c3                   	retq   
  400eea:	66 0f 1f 44 00 00    	nopw   0x0(%rax,%rax,1)

0000000000400ef0 <register_tm_clones>:
  400ef0:	be 90 44 60 00       	mov    $0x604490,%esi
  400ef5:	55                   	push   %rbp
  400ef6:	48 81 ee 90 44 60 00 	sub    $0x604490,%rsi
  400efd:	48 89 e5             	mov    %rsp,%rbp
  400f00:	48 c1 fe 03          	sar    $0x3,%rsi
  400f04:	48 89 f0             	mov    %rsi,%rax
  400f07:	48 c1 e8 3f          	shr    $0x3f,%rax
  400f0b:	48 01 c6             	add    %rax,%rsi
  400f0e:	48 d1 fe             	sar    %rsi
  400f11:	74 15                	je     400f28 <register_tm_clones+0x38>
  400f13:	b8 00 00 00 00       	mov    $0x0,%eax
  400f18:	48 85 c0             	test   %rax,%rax
  400f1b:	74 0b                	je     400f28 <register_tm_clones+0x38>
  400f1d:	5d                   	pop    %rbp
  400f1e:	bf 90 44 60 00       	mov    $0x604490,%edi
  400f23:	ff e0                	jmpq   *%rax
  400f25:	0f 1f 00             	nopl   (%rax)
  400f28:	5d                   	pop    %rbp
  400f29:	c3                   	retq   
  400f2a:	66 0f 1f 44 00 00    	nopw   0x0(%rax,%rax,1)

0000000000400f30 <__do_global_dtors_aux>:
  400f30:	80 3d 91 35 20 00 00 	cmpb   $0x0,0x203591(%rip)        # 6044c8 <completed.7698>
  400f37:	75 17                	jne    400f50 <__do_global_dtors_aux+0x20>
  400f39:	55                   	push   %rbp
  400f3a:	48 89 e5             	mov    %rsp,%rbp
  400f3d:	e8 7e ff ff ff       	callq  400ec0 <deregister_tm_clones>
  400f42:	c6 05 7f 35 20 00 01 	movb   $0x1,0x20357f(%rip)        # 6044c8 <completed.7698>
  400f49:	5d                   	pop    %rbp
  400f4a:	c3                   	retq   
  400f4b:	0f 1f 44 00 00       	nopl   0x0(%rax,%rax,1)
  400f50:	f3 c3                	repz retq 
  400f52:	0f 1f 40 00          	nopl   0x0(%rax)
  400f56:	66 2e 0f 1f 84 00 00 	nopw   %cs:0x0(%rax,%rax,1)
  400f5d:	00 00 00 

0000000000400f60 <frame_dummy>:
  400f60:	55                   	push   %rbp
  400f61:	48 89 e5             	mov    %rsp,%rbp
  400f64:	5d                   	pop    %rbp
  400f65:	eb 89                	jmp    400ef0 <register_tm_clones>

0000000000400f67 <usage>:
  400f67:	48 83 ec 08          	sub    $0x8,%rsp
  400f6b:	48 89 fa             	mov    %rdi,%rdx
  400f6e:	83 3d 93 35 20 00 00 	cmpl   $0x0,0x203593(%rip)        # 604508 <is_checker>
  400f75:	74 46                	je     400fbd <usage+0x56>
  400f77:	be 78 2e 40 00       	mov    $0x402e78,%esi
  400f7c:	bf 01 00 00 00       	mov    $0x1,%edi
  400f81:	b8 00 00 00 00       	mov    $0x0,%eax
  400f86:	e8 55 fe ff ff       	callq  400de0 <__printf_chk@plt>
  400f8b:	bf b0 2e 40 00       	mov    $0x402eb0,%edi
  400f90:	e8 2b fd ff ff       	callq  400cc0 <puts@plt>
  400f95:	bf 28 30 40 00       	mov    $0x403028,%edi
  400f9a:	e8 21 fd ff ff       	callq  400cc0 <puts@plt>
  400f9f:	bf d8 2e 40 00       	mov    $0x402ed8,%edi
  400fa4:	e8 17 fd ff ff       	callq  400cc0 <puts@plt>
  400fa9:	bf 42 30 40 00       	mov    $0x403042,%edi
  400fae:	e8 0d fd ff ff       	callq  400cc0 <puts@plt>
  400fb3:	bf 00 00 00 00       	mov    $0x0,%edi
  400fb8:	e8 73 fe ff ff       	callq  400e30 <exit@plt>
  400fbd:	be 5e 30 40 00       	mov    $0x40305e,%esi
  400fc2:	bf 01 00 00 00       	mov    $0x1,%edi
  400fc7:	b8 00 00 00 00       	mov    $0x0,%eax
  400fcc:	e8 0f fe ff ff       	callq  400de0 <__printf_chk@plt>
  400fd1:	bf 00 2f 40 00       	mov    $0x402f00,%edi
  400fd6:	e8 e5 fc ff ff       	callq  400cc0 <puts@plt>
  400fdb:	bf 28 2f 40 00       	mov    $0x402f28,%edi
  400fe0:	e8 db fc ff ff       	callq  400cc0 <puts@plt>
  400fe5:	bf 7c 30 40 00       	mov    $0x40307c,%edi
  400fea:	e8 d1 fc ff ff       	callq  400cc0 <puts@plt>
  400fef:	eb c2                	jmp    400fb3 <usage+0x4c>

0000000000400ff1 <initialize_target>:
  400ff1:	55                   	push   %rbp
  400ff2:	53                   	push   %rbx
  400ff3:	48 81 ec 18 21 00 00 	sub    $0x2118,%rsp
  400ffa:	89 f5                	mov    %esi,%ebp
  400ffc:	64 48 8b 04 25 28 00 	mov    %fs:0x28,%rax
  401003:	00 00 
  401005:	48 89 84 24 08 21 00 	mov    %rax,0x2108(%rsp)
  40100c:	00 
  40100d:	31 c0                	xor    %eax,%eax
  40100f:	89 3d e3 34 20 00    	mov    %edi,0x2034e3(%rip)        # 6044f8 <check_level>
  401015:	8b 3d 2d 31 20 00    	mov    0x20312d(%rip),%edi        # 604148 <target_id>
  40101b:	e8 b1 1d 00 00       	callq  402dd1 <gencookie>
  401020:	89 05 de 34 20 00    	mov    %eax,0x2034de(%rip)        # 604504 <cookie>
  401026:	89 c7                	mov    %eax,%edi
  401028:	e8 a4 1d 00 00       	callq  402dd1 <gencookie>
  40102d:	89 05 cd 34 20 00    	mov    %eax,0x2034cd(%rip)        # 604500 <authkey>
  401033:	8b 05 0f 31 20 00    	mov    0x20310f(%rip),%eax        # 604148 <target_id>
  401039:	8d 78 01             	lea    0x1(%rax),%edi
  40103c:	e8 4f fc ff ff       	callq  400c90 <srandom@plt>
  401041:	e8 5a fd ff ff       	callq  400da0 <random@plt>
  401046:	89 c7                	mov    %eax,%edi
  401048:	e8 f2 02 00 00       	callq  40133f <scramble>
  40104d:	89 c3                	mov    %eax,%ebx
  40104f:	85 ed                	test   %ebp,%ebp
  401051:	75 54                	jne    4010a7 <initialize_target+0xb6>
  401053:	b8 00 00 00 00       	mov    $0x0,%eax
  401058:	01 d8                	add    %ebx,%eax
  40105a:	0f b7 c0             	movzwl %ax,%eax
  40105d:	8d 04 c5 00 01 00 00 	lea    0x100(,%rax,8),%eax
  401064:	89 c0                	mov    %eax,%eax
  401066:	48 89 05 13 34 20 00 	mov    %rax,0x203413(%rip)        # 604480 <buf_offset>
  40106d:	c6 05 b4 40 20 00 63 	movb   $0x63,0x2040b4(%rip)        # 605128 <target_prefix>
  401074:	83 3d 0d 34 20 00 00 	cmpl   $0x0,0x20340d(%rip)        # 604488 <notify>
  40107b:	74 09                	je     401086 <initialize_target+0x95>
  40107d:	83 3d 84 34 20 00 00 	cmpl   $0x0,0x203484(%rip)        # 604508 <is_checker>
  401084:	74 39                	je     4010bf <initialize_target+0xce>
  401086:	48 8b 84 24 08 21 00 	mov    0x2108(%rsp),%rax
  40108d:	00 
  40108e:	64 48 33 04 25 28 00 	xor    %fs:0x28,%rax
  401095:	00 00 
  401097:	0f 85 d1 00 00 00    	jne    40116e <initialize_target+0x17d>
  40109d:	48 81 c4 18 21 00 00 	add    $0x2118,%rsp
  4010a4:	5b                   	pop    %rbx
  4010a5:	5d                   	pop    %rbp
  4010a6:	c3                   	retq   
  4010a7:	bf 00 00 00 00       	mov    $0x0,%edi
  4010ac:	e8 df fc ff ff       	callq  400d90 <time@plt>
  4010b1:	89 c7                	mov    %eax,%edi
  4010b3:	e8 d8 fb ff ff       	callq  400c90 <srandom@plt>
  4010b8:	e8 e3 fc ff ff       	callq  400da0 <random@plt>
  4010bd:	eb 99                	jmp    401058 <initialize_target+0x67>
  4010bf:	be 00 01 00 00       	mov    $0x100,%esi
  4010c4:	48 89 e7             	mov    %rsp,%rdi
  4010c7:	e8 54 fd ff ff       	callq  400e20 <gethostname@plt>
  4010cc:	89 c5                	mov    %eax,%ebp
  4010ce:	85 c0                	test   %eax,%eax
  4010d0:	75 23                	jne    4010f5 <initialize_target+0x104>
  4010d2:	89 c3                	mov    %eax,%ebx
  4010d4:	48 63 c3             	movslq %ebx,%rax
  4010d7:	48 8b 3c c5 60 41 60 	mov    0x604160(,%rax,8),%rdi
  4010de:	00 
  4010df:	48 85 ff             	test   %rdi,%rdi
  4010e2:	74 2a                	je     40110e <initialize_target+0x11d>
  4010e4:	48 89 e6             	mov    %rsp,%rsi
  4010e7:	e8 84 fb ff ff       	callq  400c70 <strcasecmp@plt>
  4010ec:	85 c0                	test   %eax,%eax
  4010ee:	74 19                	je     401109 <initialize_target+0x118>
  4010f0:	83 c3 01             	add    $0x1,%ebx
  4010f3:	eb df                	jmp    4010d4 <initialize_target+0xe3>
  4010f5:	bf 58 2f 40 00       	mov    $0x402f58,%edi
  4010fa:	e8 c1 fb ff ff       	callq  400cc0 <puts@plt>
  4010ff:	bf 08 00 00 00       	mov    $0x8,%edi
  401104:	e8 27 fd ff ff       	callq  400e30 <exit@plt>
  401109:	bd 01 00 00 00       	mov    $0x1,%ebp
  40110e:	85 ed                	test   %ebp,%ebp
  401110:	74 3b                	je     40114d <initialize_target+0x15c>
  401112:	48 8d bc 24 00 01 00 	lea    0x100(%rsp),%rdi
  401119:	00 
  40111a:	e8 07 1a 00 00       	callq  402b26 <init_driver>
  40111f:	85 c0                	test   %eax,%eax
  401121:	0f 89 5f ff ff ff    	jns    401086 <initialize_target+0x95>
  401127:	48 8d 94 24 00 01 00 	lea    0x100(%rsp),%rdx
  40112e:	00 
  40112f:	be d0 2f 40 00       	mov    $0x402fd0,%esi
  401134:	bf 01 00 00 00       	mov    $0x1,%edi
  401139:	b8 00 00 00 00       	mov    $0x0,%eax
  40113e:	e8 9d fc ff ff       	callq  400de0 <__printf_chk@plt>
  401143:	bf 08 00 00 00       	mov    $0x8,%edi
  401148:	e8 e3 fc ff ff       	callq  400e30 <exit@plt>
  40114d:	48 89 e2             	mov    %rsp,%rdx
  401150:	be 90 2f 40 00       	mov    $0x402f90,%esi
  401155:	bf 01 00 00 00       	mov    $0x1,%edi
  40115a:	b8 00 00 00 00       	mov    $0x0,%eax
  40115f:	e8 7c fc ff ff       	callq  400de0 <__printf_chk@plt>
  401164:	bf 08 00 00 00       	mov    $0x8,%edi
  401169:	e8 c2 fc ff ff       	callq  400e30 <exit@plt>
  40116e:	e8 6d fb ff ff       	callq  400ce0 <__stack_chk_fail@plt>

0000000000401173 <main>:
  401173:	41 56                	push   %r14
  401175:	41 55                	push   %r13
  401177:	41 54                	push   %r12
  401179:	55                   	push   %rbp
  40117a:	53                   	push   %rbx
  40117b:	41 89 fc             	mov    %edi,%r12d
  40117e:	48 89 f3             	mov    %rsi,%rbx
  401181:	be 63 1e 40 00       	mov    $0x401e63,%esi
  401186:	bf 0b 00 00 00       	mov    $0xb,%edi
  40118b:	e8 b0 fb ff ff       	callq  400d40 <signal@plt>
  401190:	be 15 1e 40 00       	mov    $0x401e15,%esi
  401195:	bf 07 00 00 00       	mov    $0x7,%edi
  40119a:	e8 a1 fb ff ff       	callq  400d40 <signal@plt>
  40119f:	be b1 1e 40 00       	mov    $0x401eb1,%esi
  4011a4:	bf 04 00 00 00       	mov    $0x4,%edi
  4011a9:	e8 92 fb ff ff       	callq  400d40 <signal@plt>
  4011ae:	83 3d 53 33 20 00 00 	cmpl   $0x0,0x203353(%rip)        # 604508 <is_checker>
  4011b5:	75 24                	jne    4011db <main+0x68>
  4011b7:	bd 95 30 40 00       	mov    $0x403095,%ebp
  4011bc:	48 8b 05 dd 32 20 00 	mov    0x2032dd(%rip),%rax        # 6044a0 <stdin@@GLIBC_2.2.5>
  4011c3:	48 89 05 26 33 20 00 	mov    %rax,0x203326(%rip)        # 6044f0 <infile>
  4011ca:	41 bd 00 00 00 00    	mov    $0x0,%r13d
  4011d0:	41 be 00 00 00 00    	mov    $0x0,%r14d
  4011d6:	e9 85 00 00 00       	jmpq   401260 <main+0xed>
  4011db:	be ff 1e 40 00       	mov    $0x401eff,%esi
  4011e0:	bf 0e 00 00 00       	mov    $0xe,%edi
  4011e5:	e8 56 fb ff ff       	callq  400d40 <signal@plt>
  4011ea:	bf 05 00 00 00       	mov    $0x5,%edi
  4011ef:	e8 1c fb ff ff       	callq  400d10 <alarm@plt>
  4011f4:	bd 9a 30 40 00       	mov    $0x40309a,%ebp
  4011f9:	eb c1                	jmp    4011bc <main+0x49>
  4011fb:	48 8b 3b             	mov    (%rbx),%rdi
  4011fe:	e8 64 fd ff ff       	callq  400f67 <usage>
  401203:	be 65 33 40 00       	mov    $0x403365,%esi
  401208:	48 8b 3d 99 32 20 00 	mov    0x203299(%rip),%rdi        # 6044a8 <optarg@@GLIBC_2.2.5>
  40120f:	e8 dc fb ff ff       	callq  400df0 <fopen@plt>
  401214:	48 89 05 d5 32 20 00 	mov    %rax,0x2032d5(%rip)        # 6044f0 <infile>
  40121b:	48 85 c0             	test   %rax,%rax
  40121e:	75 40                	jne    401260 <main+0xed>
  401220:	48 8b 0d 81 32 20 00 	mov    0x203281(%rip),%rcx        # 6044a8 <optarg@@GLIBC_2.2.5>
  401227:	ba a2 30 40 00       	mov    $0x4030a2,%edx
  40122c:	be 01 00 00 00       	mov    $0x1,%esi
  401231:	48 8b 3d 88 32 20 00 	mov    0x203288(%rip),%rdi        # 6044c0 <stderr@@GLIBC_2.2.5>
  401238:	e8 13 fc ff ff       	callq  400e50 <__fprintf_chk@plt>
  40123d:	b8 01 00 00 00       	mov    $0x1,%eax
  401242:	e9 cc 00 00 00       	jmpq   401313 <main+0x1a0>
  401247:	ba 10 00 00 00       	mov    $0x10,%edx
  40124c:	be 00 00 00 00       	mov    $0x0,%esi
  401251:	48 8b 3d 50 32 20 00 	mov    0x203250(%rip),%rdi        # 6044a8 <optarg@@GLIBC_2.2.5>
  401258:	e8 b3 fb ff ff       	callq  400e10 <strtoul@plt>
  40125d:	41 89 c6             	mov    %eax,%r14d
  401260:	48 89 ea             	mov    %rbp,%rdx
  401263:	48 89 de             	mov    %rbx,%rsi
  401266:	44 89 e7             	mov    %r12d,%edi
  401269:	e8 92 fb ff ff       	callq  400e00 <getopt@plt>
  40126e:	3c ff                	cmp    $0xff,%al
  401270:	74 57                	je     4012c9 <main+0x156>
  401272:	0f be d0             	movsbl %al,%edx
  401275:	83 e8 61             	sub    $0x61,%eax
  401278:	3c 10                	cmp    $0x10,%al
  40127a:	77 31                	ja     4012ad <main+0x13a>
  40127c:	0f b6 c0             	movzbl %al,%eax
  40127f:	ff 24 c5 e0 30 40 00 	jmpq   *0x4030e0(,%rax,8)
  401286:	ba 0a 00 00 00       	mov    $0xa,%edx
  40128b:	be 00 00 00 00       	mov    $0x0,%esi
  401290:	48 8b 3d 11 32 20 00 	mov    0x203211(%rip),%rdi        # 6044a8 <optarg@@GLIBC_2.2.5>
  401297:	e8 d4 fa ff ff       	callq  400d70 <strtol@plt>
  40129c:	41 89 c5             	mov    %eax,%r13d
  40129f:	eb bf                	jmp    401260 <main+0xed>
  4012a1:	c7 05 dd 31 20 00 00 	movl   $0x0,0x2031dd(%rip)        # 604488 <notify>
  4012a8:	00 00 00 
  4012ab:	eb b3                	jmp    401260 <main+0xed>
  4012ad:	be bf 30 40 00       	mov    $0x4030bf,%esi
  4012b2:	bf 01 00 00 00       	mov    $0x1,%edi
  4012b7:	b8 00 00 00 00       	mov    $0x0,%eax
  4012bc:	e8 1f fb ff ff       	callq  400de0 <__printf_chk@plt>
  4012c1:	48 8b 3b             	mov    (%rbx),%rdi
  4012c4:	e8 9e fc ff ff       	callq  400f67 <usage>
  4012c9:	be 00 00 00 00       	mov    $0x0,%esi
  4012ce:	44 89 ef             	mov    %r13d,%edi
  4012d1:	e8 1b fd ff ff       	callq  400ff1 <initialize_target>
  4012d6:	83 3d 2b 32 20 00 00 	cmpl   $0x0,0x20322b(%rip)        # 604508 <is_checker>
  4012dd:	74 09                	je     4012e8 <main+0x175>
  4012df:	44 39 35 1a 32 20 00 	cmp    %r14d,0x20321a(%rip)        # 604500 <authkey>
  4012e6:	75 34                	jne    40131c <main+0x1a9>
  4012e8:	8b 15 16 32 20 00    	mov    0x203216(%rip),%edx        # 604504 <cookie>
  4012ee:	be d2 30 40 00       	mov    $0x4030d2,%esi
  4012f3:	bf 01 00 00 00       	mov    $0x1,%edi
  4012f8:	b8 00 00 00 00       	mov    $0x0,%eax
  4012fd:	e8 de fa ff ff       	callq  400de0 <__printf_chk@plt>
  401302:	48 8b 3d 77 31 20 00 	mov    0x203177(%rip),%rdi        # 604480 <buf_offset>
  401309:	e8 f3 0c 00 00       	callq  402001 <stable_launch>
  40130e:	b8 00 00 00 00       	mov    $0x0,%eax
  401313:	5b                   	pop    %rbx
  401314:	5d                   	pop    %rbp
  401315:	41 5c                	pop    %r12
  401317:	41 5d                	pop    %r13
  401319:	41 5e                	pop    %r14
  40131b:	c3                   	retq   
  40131c:	44 89 f2             	mov    %r14d,%edx
  40131f:	be f8 2f 40 00       	mov    $0x402ff8,%esi
  401324:	bf 01 00 00 00       	mov    $0x1,%edi
  401329:	b8 00 00 00 00       	mov    $0x0,%eax
  40132e:	e8 ad fa ff ff       	callq  400de0 <__printf_chk@plt>
  401333:	b8 00 00 00 00       	mov    $0x0,%eax
  401338:	e8 61 07 00 00       	callq  401a9e <check_fail>
  40133d:	eb a9                	jmp    4012e8 <main+0x175>

000000000040133f <scramble>:
  40133f:	48 83 ec 38          	sub    $0x38,%rsp
  401343:	64 48 8b 04 25 28 00 	mov    %fs:0x28,%rax
  40134a:	00 00 
  40134c:	48 89 44 24 28       	mov    %rax,0x28(%rsp)
  401351:	31 c0                	xor    %eax,%eax
  401353:	eb 10                	jmp    401365 <scramble+0x26>
  401355:	69 d0 fc 9d 00 00    	imul   $0x9dfc,%eax,%edx
  40135b:	01 fa                	add    %edi,%edx
  40135d:	89 c1                	mov    %eax,%ecx
  40135f:	89 14 8c             	mov    %edx,(%rsp,%rcx,4)
  401362:	83 c0 01             	add    $0x1,%eax
  401365:	83 f8 09             	cmp    $0x9,%eax
  401368:	76 eb                	jbe    401355 <scramble+0x16>
  40136a:	8b 44 24 20          	mov    0x20(%rsp),%eax
  40136e:	69 c0 ed ae 00 00    	imul   $0xaeed,%eax,%eax
  401374:	89 44 24 20          	mov    %eax,0x20(%rsp)
  401378:	8b 04 24             	mov    (%rsp),%eax
  40137b:	69 c0 35 c4 00 00    	imul   $0xc435,%eax,%eax
  401381:	89 04 24             	mov    %eax,(%rsp)
  401384:	8b 44 24 18          	mov    0x18(%rsp),%eax
  401388:	69 c0 f4 2a 00 00    	imul   $0x2af4,%eax,%eax
  40138e:	89 44 24 18          	mov    %eax,0x18(%rsp)
  401392:	8b 44 24 08          	mov    0x8(%rsp),%eax
  401396:	69 c0 7d 1b 00 00    	imul   $0x1b7d,%eax,%eax
  40139c:	89 44 24 08          	mov    %eax,0x8(%rsp)
  4013a0:	8b 44 24 24          	mov    0x24(%rsp),%eax
  4013a4:	69 c0 83 38 00 00    	imul   $0x3883,%eax,%eax
  4013aa:	89 44 24 24          	mov    %eax,0x24(%rsp)
  4013ae:	8b 44 24 08          	mov    0x8(%rsp),%eax
  4013b2:	69 c0 08 2b 00 00    	imul   $0x2b08,%eax,%eax
  4013b8:	89 44 24 08          	mov    %eax,0x8(%rsp)
  4013bc:	8b 44 24 1c          	mov    0x1c(%rsp),%eax
  4013c0:	69 c0 da 63 00 00    	imul   $0x63da,%eax,%eax
  4013c6:	89 44 24 1c          	mov    %eax,0x1c(%rsp)
  4013ca:	8b 44 24 14          	mov    0x14(%rsp),%eax
  4013ce:	69 c0 57 5d 00 00    	imul   $0x5d57,%eax,%eax
  4013d4:	89 44 24 14          	mov    %eax,0x14(%rsp)
  4013d8:	8b 44 24 04          	mov    0x4(%rsp),%eax
  4013dc:	69 c0 c6 7e 00 00    	imul   $0x7ec6,%eax,%eax
  4013e2:	89 44 24 04          	mov    %eax,0x4(%rsp)
  4013e6:	8b 04 24             	mov    (%rsp),%eax
  4013e9:	69 c0 3c d8 00 00    	imul   $0xd83c,%eax,%eax
  4013ef:	89 04 24             	mov    %eax,(%rsp)
  4013f2:	8b 44 24 14          	mov    0x14(%rsp),%eax
  4013f6:	69 c0 d9 90 00 00    	imul   $0x90d9,%eax,%eax
  4013fc:	89 44 24 14          	mov    %eax,0x14(%rsp)
  401400:	8b 04 24             	mov    (%rsp),%eax
  401403:	69 c0 dc 09 00 00    	imul   $0x9dc,%eax,%eax
  401409:	89 04 24             	mov    %eax,(%rsp)
  40140c:	8b 44 24 0c          	mov    0xc(%rsp),%eax
  401410:	69 c0 f6 bc 00 00    	imul   $0xbcf6,%eax,%eax
  401416:	89 44 24 0c          	mov    %eax,0xc(%rsp)
  40141a:	8b 44 24 10          	mov    0x10(%rsp),%eax
  40141e:	69 c0 e5 88 00 00    	imul   $0x88e5,%eax,%eax
  401424:	89 44 24 10          	mov    %eax,0x10(%rsp)
  401428:	8b 44 24 1c          	mov    0x1c(%rsp),%eax
  40142c:	69 c0 c7 71 00 00    	imul   $0x71c7,%eax,%eax
  401432:	89 44 24 1c          	mov    %eax,0x1c(%rsp)
  401436:	8b 44 24 20          	mov    0x20(%rsp),%eax
  40143a:	69 c0 25 16 00 00    	imul   $0x1625,%eax,%eax
  401440:	89 44 24 20          	mov    %eax,0x20(%rsp)
  401444:	8b 44 24 20          	mov    0x20(%rsp),%eax
  401448:	69 c0 66 44 00 00    	imul   $0x4466,%eax,%eax
  40144e:	89 44 24 20          	mov    %eax,0x20(%rsp)
  401452:	8b 44 24 10          	mov    0x10(%rsp),%eax
  401456:	69 c0 8c 13 00 00    	imul   $0x138c,%eax,%eax
  40145c:	89 44 24 10          	mov    %eax,0x10(%rsp)
  401460:	8b 44 24 0c          	mov    0xc(%rsp),%eax
  401464:	69 c0 f0 43 00 00    	imul   $0x43f0,%eax,%eax
  40146a:	89 44 24 0c          	mov    %eax,0xc(%rsp)
  40146e:	8b 44 24 14          	mov    0x14(%rsp),%eax
  401472:	69 c0 2d 87 00 00    	imul   $0x872d,%eax,%eax
  401478:	89 44 24 14          	mov    %eax,0x14(%rsp)
  40147c:	8b 44 24 04          	mov    0x4(%rsp),%eax
  401480:	69 c0 10 a2 00 00    	imul   $0xa210,%eax,%eax
  401486:	89 44 24 04          	mov    %eax,0x4(%rsp)
  40148a:	8b 44 24 08          	mov    0x8(%rsp),%eax
  40148e:	69 c0 0b bc 00 00    	imul   $0xbc0b,%eax,%eax
  401494:	89 44 24 08          	mov    %eax,0x8(%rsp)
  401498:	8b 44 24 20          	mov    0x20(%rsp),%eax
  40149c:	69 c0 ae 55 00 00    	imul   $0x55ae,%eax,%eax
  4014a2:	89 44 24 20          	mov    %eax,0x20(%rsp)
  4014a6:	8b 04 24             	mov    (%rsp),%eax
  4014a9:	69 c0 f8 e6 00 00    	imul   $0xe6f8,%eax,%eax
  4014af:	89 04 24             	mov    %eax,(%rsp)
  4014b2:	8b 44 24 08          	mov    0x8(%rsp),%eax
  4014b6:	69 c0 85 5e 00 00    	imul   $0x5e85,%eax,%eax
  4014bc:	89 44 24 08          	mov    %eax,0x8(%rsp)
  4014c0:	8b 44 24 20          	mov    0x20(%rsp),%eax
  4014c4:	69 c0 68 54 00 00    	imul   $0x5468,%eax,%eax
  4014ca:	89 44 24 20          	mov    %eax,0x20(%rsp)
  4014ce:	8b 44 24 14          	mov    0x14(%rsp),%eax
  4014d2:	69 c0 7b 62 00 00    	imul   $0x627b,%eax,%eax
  4014d8:	89 44 24 14          	mov    %eax,0x14(%rsp)
  4014dc:	8b 44 24 14          	mov    0x14(%rsp),%eax
  4014e0:	69 c0 51 a9 00 00    	imul   $0xa951,%eax,%eax
  4014e6:	89 44 24 14          	mov    %eax,0x14(%rsp)
  4014ea:	8b 04 24             	mov    (%rsp),%eax
  4014ed:	69 c0 e2 ae 00 00    	imul   $0xaee2,%eax,%eax
  4014f3:	89 04 24             	mov    %eax,(%rsp)
  4014f6:	8b 44 24 14          	mov    0x14(%rsp),%eax
  4014fa:	69 c0 9a 97 00 00    	imul   $0x979a,%eax,%eax
  401500:	89 44 24 14          	mov    %eax,0x14(%rsp)
  401504:	8b 44 24 0c          	mov    0xc(%rsp),%eax
  401508:	69 c0 c3 8b 00 00    	imul   $0x8bc3,%eax,%eax
  40150e:	89 44 24 0c          	mov    %eax,0xc(%rsp)
  401512:	8b 44 24 14          	mov    0x14(%rsp),%eax
  401516:	69 c0 5d 41 00 00    	imul   $0x415d,%eax,%eax
  40151c:	89 44 24 14          	mov    %eax,0x14(%rsp)
  401520:	8b 44 24 10          	mov    0x10(%rsp),%eax
  401524:	69 c0 19 88 00 00    	imul   $0x8819,%eax,%eax
  40152a:	89 44 24 10          	mov    %eax,0x10(%rsp)
  40152e:	8b 44 24 08          	mov    0x8(%rsp),%eax
  401532:	69 c0 84 3f 00 00    	imul   $0x3f84,%eax,%eax
  401538:	89 44 24 08          	mov    %eax,0x8(%rsp)
  40153c:	8b 44 24 0c          	mov    0xc(%rsp),%eax
  401540:	69 c0 f3 83 00 00    	imul   $0x83f3,%eax,%eax
  401546:	89 44 24 0c          	mov    %eax,0xc(%rsp)
  40154a:	8b 44 24 10          	mov    0x10(%rsp),%eax
  40154e:	69 c0 7d 48 00 00    	imul   $0x487d,%eax,%eax
  401554:	89 44 24 10          	mov    %eax,0x10(%rsp)
  401558:	8b 44 24 14          	mov    0x14(%rsp),%eax
  40155c:	69 c0 e6 78 00 00    	imul   $0x78e6,%eax,%eax
  401562:	89 44 24 14          	mov    %eax,0x14(%rsp)
  401566:	8b 44 24 10          	mov    0x10(%rsp),%eax
  40156a:	69 c0 ee 2b 00 00    	imul   $0x2bee,%eax,%eax
  401570:	89 44 24 10          	mov    %eax,0x10(%rsp)
  401574:	8b 44 24 18          	mov    0x18(%rsp),%eax
  401578:	69 c0 eb 1d 00 00    	imul   $0x1deb,%eax,%eax
  40157e:	89 44 24 18          	mov    %eax,0x18(%rsp)
  401582:	8b 44 24 1c          	mov    0x1c(%rsp),%eax
  401586:	69 c0 08 a3 00 00    	imul   $0xa308,%eax,%eax
  40158c:	89 44 24 1c          	mov    %eax,0x1c(%rsp)
  401590:	8b 44 24 18          	mov    0x18(%rsp),%eax
  401594:	69 c0 1a d2 00 00    	imul   $0xd21a,%eax,%eax
  40159a:	89 44 24 18          	mov    %eax,0x18(%rsp)
  40159e:	8b 44 24 24          	mov    0x24(%rsp),%eax
  4015a2:	69 c0 cf 6b 00 00    	imul   $0x6bcf,%eax,%eax
  4015a8:	89 44 24 24          	mov    %eax,0x24(%rsp)
  4015ac:	8b 44 24 18          	mov    0x18(%rsp),%eax
  4015b0:	69 c0 b5 55 00 00    	imul   $0x55b5,%eax,%eax
  4015b6:	89 44 24 18          	mov    %eax,0x18(%rsp)
  4015ba:	8b 44 24 24          	mov    0x24(%rsp),%eax
  4015be:	69 c0 07 54 00 00    	imul   $0x5407,%eax,%eax
  4015c4:	89 44 24 24          	mov    %eax,0x24(%rsp)
  4015c8:	8b 44 24 1c          	mov    0x1c(%rsp),%eax
  4015cc:	69 c0 56 47 00 00    	imul   $0x4756,%eax,%eax
  4015d2:	89 44 24 1c          	mov    %eax,0x1c(%rsp)
  4015d6:	8b 44 24 10          	mov    0x10(%rsp),%eax
  4015da:	69 c0 40 25 00 00    	imul   $0x2540,%eax,%eax
  4015e0:	89 44 24 10          	mov    %eax,0x10(%rsp)
  4015e4:	8b 44 24 08          	mov    0x8(%rsp),%eax
  4015e8:	69 c0 60 99 00 00    	imul   $0x9960,%eax,%eax
  4015ee:	89 44 24 08          	mov    %eax,0x8(%rsp)
  4015f2:	8b 44 24 14          	mov    0x14(%rsp),%eax
  4015f6:	69 c0 43 a3 00 00    	imul   $0xa343,%eax,%eax
  4015fc:	89 44 24 14          	mov    %eax,0x14(%rsp)
  401600:	8b 44 24 14          	mov    0x14(%rsp),%eax
  401604:	69 c0 88 bb 00 00    	imul   $0xbb88,%eax,%eax
  40160a:	89 44 24 14          	mov    %eax,0x14(%rsp)
  40160e:	8b 44 24 1c          	mov    0x1c(%rsp),%eax
  401612:	69 c0 83 ed 00 00    	imul   $0xed83,%eax,%eax
  401618:	89 44 24 1c          	mov    %eax,0x1c(%rsp)
  40161c:	8b 44 24 1c          	mov    0x1c(%rsp),%eax
  401620:	69 c0 78 a9 00 00    	imul   $0xa978,%eax,%eax
  401626:	89 44 24 1c          	mov    %eax,0x1c(%rsp)
  40162a:	8b 44 24 08          	mov    0x8(%rsp),%eax
  40162e:	69 c0 7f 65 00 00    	imul   $0x657f,%eax,%eax
  401634:	89 44 24 08          	mov    %eax,0x8(%rsp)
  401638:	8b 04 24             	mov    (%rsp),%eax
  40163b:	69 c0 8a 3a 00 00    	imul   $0x3a8a,%eax,%eax
  401641:	89 04 24             	mov    %eax,(%rsp)
  401644:	8b 44 24 24          	mov    0x24(%rsp),%eax
  401648:	69 c0 f2 f0 00 00    	imul   $0xf0f2,%eax,%eax
  40164e:	89 44 24 24          	mov    %eax,0x24(%rsp)
  401652:	8b 44 24 08          	mov    0x8(%rsp),%eax
  401656:	69 c0 54 a4 00 00    	imul   $0xa454,%eax,%eax
  40165c:	89 44 24 08          	mov    %eax,0x8(%rsp)
  401660:	8b 44 24 04          	mov    0x4(%rsp),%eax
  401664:	69 c0 e6 d4 00 00    	imul   $0xd4e6,%eax,%eax
  40166a:	89 44 24 04          	mov    %eax,0x4(%rsp)
  40166e:	8b 44 24 18          	mov    0x18(%rsp),%eax
  401672:	69 c0 6b 8b 00 00    	imul   $0x8b6b,%eax,%eax
  401678:	89 44 24 18          	mov    %eax,0x18(%rsp)
  40167c:	8b 04 24             	mov    (%rsp),%eax
  40167f:	69 c0 04 ab 00 00    	imul   $0xab04,%eax,%eax
  401685:	89 04 24             	mov    %eax,(%rsp)
  401688:	8b 44 24 1c          	mov    0x1c(%rsp),%eax
  40168c:	69 c0 d6 55 00 00    	imul   $0x55d6,%eax,%eax
  401692:	89 44 24 1c          	mov    %eax,0x1c(%rsp)
  401696:	8b 44 24 04          	mov    0x4(%rsp),%eax
  40169a:	69 c0 b8 e5 00 00    	imul   $0xe5b8,%eax,%eax
  4016a0:	89 44 24 04          	mov    %eax,0x4(%rsp)
  4016a4:	8b 04 24             	mov    (%rsp),%eax
  4016a7:	69 c0 ac ea 00 00    	imul   $0xeaac,%eax,%eax
  4016ad:	89 04 24             	mov    %eax,(%rsp)
  4016b0:	8b 44 24 20          	mov    0x20(%rsp),%eax
  4016b4:	69 c0 47 70 00 00    	imul   $0x7047,%eax,%eax
  4016ba:	89 44 24 20          	mov    %eax,0x20(%rsp)
  4016be:	8b 04 24             	mov    (%rsp),%eax
  4016c1:	69 c0 96 71 00 00    	imul   $0x7196,%eax,%eax
  4016c7:	89 04 24             	mov    %eax,(%rsp)
  4016ca:	8b 44 24 08          	mov    0x8(%rsp),%eax
  4016ce:	69 c0 86 a5 00 00    	imul   $0xa586,%eax,%eax
  4016d4:	89 44 24 08          	mov    %eax,0x8(%rsp)
  4016d8:	8b 44 24 14          	mov    0x14(%rsp),%eax
  4016dc:	69 c0 52 f6 00 00    	imul   $0xf652,%eax,%eax
  4016e2:	89 44 24 14          	mov    %eax,0x14(%rsp)
  4016e6:	8b 44 24 10          	mov    0x10(%rsp),%eax
  4016ea:	69 c0 9a 6c 00 00    	imul   $0x6c9a,%eax,%eax
  4016f0:	89 44 24 10          	mov    %eax,0x10(%rsp)
  4016f4:	8b 44 24 14          	mov    0x14(%rsp),%eax
  4016f8:	69 c0 0a c9 00 00    	imul   $0xc90a,%eax,%eax
  4016fe:	89 44 24 14          	mov    %eax,0x14(%rsp)
  401702:	8b 44 24 18          	mov    0x18(%rsp),%eax
  401706:	69 c0 29 c2 00 00    	imul   $0xc229,%eax,%eax
  40170c:	89 44 24 18          	mov    %eax,0x18(%rsp)
  401710:	8b 44 24 1c          	mov    0x1c(%rsp),%eax
  401714:	69 c0 87 63 00 00    	imul   $0x6387,%eax,%eax
  40171a:	89 44 24 1c          	mov    %eax,0x1c(%rsp)
  40171e:	8b 44 24 18          	mov    0x18(%rsp),%eax
  401722:	69 c0 0a 5c 00 00    	imul   $0x5c0a,%eax,%eax
  401728:	89 44 24 18          	mov    %eax,0x18(%rsp)
  40172c:	8b 44 24 18          	mov    0x18(%rsp),%eax
  401730:	69 c0 16 47 00 00    	imul   $0x4716,%eax,%eax
  401736:	89 44 24 18          	mov    %eax,0x18(%rsp)
  40173a:	8b 44 24 24          	mov    0x24(%rsp),%eax
  40173e:	69 c0 4b 7e 00 00    	imul   $0x7e4b,%eax,%eax
  401744:	89 44 24 24          	mov    %eax,0x24(%rsp)
  401748:	8b 44 24 04          	mov    0x4(%rsp),%eax
  40174c:	69 c0 a6 71 00 00    	imul   $0x71a6,%eax,%eax
  401752:	89 44 24 04          	mov    %eax,0x4(%rsp)
  401756:	8b 44 24 24          	mov    0x24(%rsp),%eax
  40175a:	69 c0 a1 b3 00 00    	imul   $0xb3a1,%eax,%eax
  401760:	89 44 24 24          	mov    %eax,0x24(%rsp)
  401764:	8b 44 24 14          	mov    0x14(%rsp),%eax
  401768:	69 c0 5b 28 00 00    	imul   $0x285b,%eax,%eax
  40176e:	89 44 24 14          	mov    %eax,0x14(%rsp)
  401772:	8b 44 24 14          	mov    0x14(%rsp),%eax
  401776:	69 c0 aa 64 00 00    	imul   $0x64aa,%eax,%eax
  40177c:	89 44 24 14          	mov    %eax,0x14(%rsp)
  401780:	8b 44 24 24          	mov    0x24(%rsp),%eax
  401784:	69 c0 52 a4 00 00    	imul   $0xa452,%eax,%eax
  40178a:	89 44 24 24          	mov    %eax,0x24(%rsp)
  40178e:	8b 44 24 10          	mov    0x10(%rsp),%eax
  401792:	69 c0 14 97 00 00    	imul   $0x9714,%eax,%eax
  401798:	89 44 24 10          	mov    %eax,0x10(%rsp)
  40179c:	8b 04 24             	mov    (%rsp),%eax
  40179f:	69 c0 7b e8 00 00    	imul   $0xe87b,%eax,%eax
  4017a5:	89 04 24             	mov    %eax,(%rsp)
  4017a8:	8b 44 24 1c          	mov    0x1c(%rsp),%eax
  4017ac:	69 c0 07 43 00 00    	imul   $0x4307,%eax,%eax
  4017b2:	89 44 24 1c          	mov    %eax,0x1c(%rsp)
  4017b6:	8b 44 24 04          	mov    0x4(%rsp),%eax
  4017ba:	69 c0 a3 cf 00 00    	imul   $0xcfa3,%eax,%eax
  4017c0:	89 44 24 04          	mov    %eax,0x4(%rsp)
  4017c4:	8b 04 24             	mov    (%rsp),%eax
  4017c7:	69 c0 98 7e 00 00    	imul   $0x7e98,%eax,%eax
  4017cd:	89 04 24             	mov    %eax,(%rsp)
  4017d0:	8b 44 24 04          	mov    0x4(%rsp),%eax
  4017d4:	69 c0 ba 81 00 00    	imul   $0x81ba,%eax,%eax
  4017da:	89 44 24 04          	mov    %eax,0x4(%rsp)
  4017de:	8b 44 24 10          	mov    0x10(%rsp),%eax
  4017e2:	69 c0 42 9c 00 00    	imul   $0x9c42,%eax,%eax
  4017e8:	89 44 24 10          	mov    %eax,0x10(%rsp)
  4017ec:	8b 44 24 18          	mov    0x18(%rsp),%eax
  4017f0:	69 c0 dc f3 00 00    	imul   $0xf3dc,%eax,%eax
  4017f6:	89 44 24 18          	mov    %eax,0x18(%rsp)
  4017fa:	8b 04 24             	mov    (%rsp),%eax
  4017fd:	69 c0 1e ed 00 00    	imul   $0xed1e,%eax,%eax
  401803:	89 04 24             	mov    %eax,(%rsp)
  401806:	8b 44 24 0c          	mov    0xc(%rsp),%eax
  40180a:	69 c0 3d 29 00 00    	imul   $0x293d,%eax,%eax
  401810:	89 44 24 0c          	mov    %eax,0xc(%rsp)
  401814:	ba 00 00 00 00       	mov    $0x0,%edx
  401819:	b8 00 00 00 00       	mov    $0x0,%eax
  40181e:	eb 0a                	jmp    40182a <scramble+0x4eb>
  401820:	89 d1                	mov    %edx,%ecx
  401822:	8b 0c 8c             	mov    (%rsp,%rcx,4),%ecx
  401825:	01 c8                	add    %ecx,%eax
  401827:	83 c2 01             	add    $0x1,%edx
  40182a:	83 fa 09             	cmp    $0x9,%edx
  40182d:	76 f1                	jbe    401820 <scramble+0x4e1>
  40182f:	48 8b 74 24 28       	mov    0x28(%rsp),%rsi
  401834:	64 48 33 34 25 28 00 	xor    %fs:0x28,%rsi
  40183b:	00 00 
  40183d:	75 05                	jne    401844 <scramble+0x505>
  40183f:	48 83 c4 38          	add    $0x38,%rsp
  401843:	c3                   	retq   
  401844:	e8 97 f4 ff ff       	callq  400ce0 <__stack_chk_fail@plt>

0000000000401849 <getbuf>:
  401849:	48 83 ec 18          	sub    $0x18,%rsp
  40184d:	48 89 e7             	mov    %rsp,%rdi
  401850:	e8 7e 02 00 00       	callq  401ad3 <Gets>
  401855:	b8 01 00 00 00       	mov    $0x1,%eax
  40185a:	48 83 c4 18          	add    $0x18,%rsp
  40185e:	c3                   	retq   

000000000040185f <touch1>:
  40185f:	48 83 ec 08          	sub    $0x8,%rsp
  401863:	c7 05 8f 2c 20 00 01 	movl   $0x1,0x202c8f(%rip)        # 6044fc <vlevel>
  40186a:	00 00 00 
  40186d:	bf ba 31 40 00       	mov    $0x4031ba,%edi
  401872:	e8 49 f4 ff ff       	callq  400cc0 <puts@plt>
  401877:	bf 01 00 00 00       	mov    $0x1,%edi
  40187c:	e8 a7 04 00 00       	callq  401d28 <validate>
  401881:	bf 00 00 00 00       	mov    $0x0,%edi
  401886:	e8 a5 f5 ff ff       	callq  400e30 <exit@plt>

000000000040188b <touch2>:
  40188b:	48 83 ec 08          	sub    $0x8,%rsp
  40188f:	89 fa                	mov    %edi,%edx
  401891:	c7 05 61 2c 20 00 02 	movl   $0x2,0x202c61(%rip)        # 6044fc <vlevel>
  401898:	00 00 00 
  40189b:	39 3d 63 2c 20 00    	cmp    %edi,0x202c63(%rip)        # 604504 <cookie>
  4018a1:	74 28                	je     4018cb <touch2+0x40>
  4018a3:	be 08 32 40 00       	mov    $0x403208,%esi
  4018a8:	bf 01 00 00 00       	mov    $0x1,%edi
  4018ad:	b8 00 00 00 00       	mov    $0x0,%eax
  4018b2:	e8 29 f5 ff ff       	callq  400de0 <__printf_chk@plt>
  4018b7:	bf 02 00 00 00       	mov    $0x2,%edi
  4018bc:	e8 2c 05 00 00       	callq  401ded <fail>
  4018c1:	bf 00 00 00 00       	mov    $0x0,%edi
  4018c6:	e8 65 f5 ff ff       	callq  400e30 <exit@plt>
  4018cb:	be e0 31 40 00       	mov    $0x4031e0,%esi
  4018d0:	bf 01 00 00 00       	mov    $0x1,%edi
  4018d5:	b8 00 00 00 00       	mov    $0x0,%eax
  4018da:	e8 01 f5 ff ff       	callq  400de0 <__printf_chk@plt>
  4018df:	bf 02 00 00 00       	mov    $0x2,%edi
  4018e4:	e8 3f 04 00 00       	callq  401d28 <validate>
  4018e9:	eb d6                	jmp    4018c1 <touch2+0x36>

00000000004018eb <hexmatch>:
  4018eb:	41 54                	push   %r12
  4018ed:	55                   	push   %rbp
  4018ee:	53                   	push   %rbx
  4018ef:	48 83 c4 80          	add    $0xffffffffffffff80,%rsp
  4018f3:	89 fd                	mov    %edi,%ebp
  4018f5:	48 89 f3             	mov    %rsi,%rbx
  4018f8:	64 48 8b 04 25 28 00 	mov    %fs:0x28,%rax
  4018ff:	00 00 
  401901:	48 89 44 24 78       	mov    %rax,0x78(%rsp)
  401906:	31 c0                	xor    %eax,%eax
  401908:	e8 93 f4 ff ff       	callq  400da0 <random@plt>
  40190d:	48 89 c1             	mov    %rax,%rcx
  401910:	48 ba 0b d7 a3 70 3d 	movabs $0xa3d70a3d70a3d70b,%rdx
  401917:	0a d7 a3 
  40191a:	48 f7 ea             	imul   %rdx
  40191d:	48 01 ca             	add    %rcx,%rdx
  401920:	48 c1 fa 06          	sar    $0x6,%rdx
  401924:	48 89 c8             	mov    %rcx,%rax
  401927:	48 c1 f8 3f          	sar    $0x3f,%rax
  40192b:	48 29 c2             	sub    %rax,%rdx
  40192e:	48 8d 04 92          	lea    (%rdx,%rdx,4),%rax
  401932:	48 8d 14 80          	lea    (%rax,%rax,4),%rdx
  401936:	48 8d 04 95 00 00 00 	lea    0x0(,%rdx,4),%rax
  40193d:	00 
  40193e:	48 29 c1             	sub    %rax,%rcx
  401941:	4c 8d 24 0c          	lea    (%rsp,%rcx,1),%r12
  401945:	41 89 e8             	mov    %ebp,%r8d
  401948:	b9 d7 31 40 00       	mov    $0x4031d7,%ecx
  40194d:	48 c7 c2 ff ff ff ff 	mov    $0xffffffffffffffff,%rdx
  401954:	be 01 00 00 00       	mov    $0x1,%esi
  401959:	4c 89 e7             	mov    %r12,%rdi
  40195c:	b8 00 00 00 00       	mov    $0x0,%eax
  401961:	e8 fa f4 ff ff       	callq  400e60 <__sprintf_chk@plt>
  401966:	ba 09 00 00 00       	mov    $0x9,%edx
  40196b:	4c 89 e6             	mov    %r12,%rsi
  40196e:	48 89 df             	mov    %rbx,%rdi
  401971:	e8 2a f3 ff ff       	callq  400ca0 <strncmp@plt>
  401976:	85 c0                	test   %eax,%eax
  401978:	0f 94 c0             	sete   %al
  40197b:	48 8b 5c 24 78       	mov    0x78(%rsp),%rbx
  401980:	64 48 33 1c 25 28 00 	xor    %fs:0x28,%rbx
  401987:	00 00 
  401989:	75 0c                	jne    401997 <hexmatch+0xac>
  40198b:	0f b6 c0             	movzbl %al,%eax
  40198e:	48 83 ec 80          	sub    $0xffffffffffffff80,%rsp
  401992:	5b                   	pop    %rbx
  401993:	5d                   	pop    %rbp
  401994:	41 5c                	pop    %r12
  401996:	c3                   	retq   
  401997:	e8 44 f3 ff ff       	callq  400ce0 <__stack_chk_fail@plt>

000000000040199c <touch3>:
  40199c:	53                   	push   %rbx
  40199d:	48 89 fb             	mov    %rdi,%rbx
  4019a0:	c7 05 52 2b 20 00 03 	movl   $0x3,0x202b52(%rip)        # 6044fc <vlevel>
  4019a7:	00 00 00 
  4019aa:	48 89 fe             	mov    %rdi,%rsi
  4019ad:	8b 3d 51 2b 20 00    	mov    0x202b51(%rip),%edi        # 604504 <cookie>
  4019b3:	e8 33 ff ff ff       	callq  4018eb <hexmatch>
  4019b8:	85 c0                	test   %eax,%eax
  4019ba:	74 2b                	je     4019e7 <touch3+0x4b>
  4019bc:	48 89 da             	mov    %rbx,%rdx
  4019bf:	be 30 32 40 00       	mov    $0x403230,%esi
  4019c4:	bf 01 00 00 00       	mov    $0x1,%edi
  4019c9:	b8 00 00 00 00       	mov    $0x0,%eax
  4019ce:	e8 0d f4 ff ff       	callq  400de0 <__printf_chk@plt>
  4019d3:	bf 03 00 00 00       	mov    $0x3,%edi
  4019d8:	e8 4b 03 00 00       	callq  401d28 <validate>
  4019dd:	bf 00 00 00 00       	mov    $0x0,%edi
  4019e2:	e8 49 f4 ff ff       	callq  400e30 <exit@plt>
  4019e7:	48 89 da             	mov    %rbx,%rdx
  4019ea:	be 58 32 40 00       	mov    $0x403258,%esi
  4019ef:	bf 01 00 00 00       	mov    $0x1,%edi
  4019f4:	b8 00 00 00 00       	mov    $0x0,%eax
  4019f9:	e8 e2 f3 ff ff       	callq  400de0 <__printf_chk@plt>
  4019fe:	bf 03 00 00 00       	mov    $0x3,%edi
  401a03:	e8 e5 03 00 00       	callq  401ded <fail>
  401a08:	eb d3                	jmp    4019dd <touch3+0x41>

0000000000401a0a <test>:
  401a0a:	48 83 ec 08          	sub    $0x8,%rsp
  401a0e:	b8 00 00 00 00       	mov    $0x0,%eax
  401a13:	e8 31 fe ff ff       	callq  401849 <getbuf>
  401a18:	89 c2                	mov    %eax,%edx
  401a1a:	be 80 32 40 00       	mov    $0x403280,%esi
  401a1f:	bf 01 00 00 00       	mov    $0x1,%edi
  401a24:	b8 00 00 00 00       	mov    $0x0,%eax
  401a29:	e8 b2 f3 ff ff       	callq  400de0 <__printf_chk@plt>
  401a2e:	48 83 c4 08          	add    $0x8,%rsp
  401a32:	c3                   	retq   

0000000000401a33 <save_char>:
  401a33:	8b 05 eb 36 20 00    	mov    0x2036eb(%rip),%eax        # 605124 <gets_cnt>
  401a39:	3d ff 03 00 00       	cmp    $0x3ff,%eax
  401a3e:	7f 49                	jg     401a89 <save_char+0x56>
  401a40:	89 f9                	mov    %edi,%ecx
  401a42:	c0 e9 04             	shr    $0x4,%cl
  401a45:	8d 14 40             	lea    (%rax,%rax,2),%edx
  401a48:	83 e1 0f             	and    $0xf,%ecx
  401a4b:	0f b6 b1 a0 35 40 00 	movzbl 0x4035a0(%rcx),%esi
  401a52:	48 63 ca             	movslq %edx,%rcx
  401a55:	40 88 b1 20 45 60 00 	mov    %sil,0x604520(%rcx)
  401a5c:	8d 4a 01             	lea    0x1(%rdx),%ecx
  401a5f:	83 e7 0f             	and    $0xf,%edi
  401a62:	0f b6 b7 a0 35 40 00 	movzbl 0x4035a0(%rdi),%esi
  401a69:	48 63 c9             	movslq %ecx,%rcx
  401a6c:	40 88 b1 20 45 60 00 	mov    %sil,0x604520(%rcx)
  401a73:	83 c2 02             	add    $0x2,%edx
  401a76:	48 63 d2             	movslq %edx,%rdx
  401a79:	c6 82 20 45 60 00 20 	movb   $0x20,0x604520(%rdx)
  401a80:	83 c0 01             	add    $0x1,%eax
  401a83:	89 05 9b 36 20 00    	mov    %eax,0x20369b(%rip)        # 605124 <gets_cnt>
  401a89:	f3 c3                	repz retq 

0000000000401a8b <save_term>:
  401a8b:	8b 05 93 36 20 00    	mov    0x203693(%rip),%eax        # 605124 <gets_cnt>
  401a91:	8d 04 40             	lea    (%rax,%rax,2),%eax
  401a94:	48 98                	cltq   
  401a96:	c6 80 20 45 60 00 00 	movb   $0x0,0x604520(%rax)
  401a9d:	c3                   	retq   

0000000000401a9e <check_fail>:
  401a9e:	48 83 ec 08          	sub    $0x8,%rsp
  401aa2:	0f be 15 7f 36 20 00 	movsbl 0x20367f(%rip),%edx        # 605128 <target_prefix>
  401aa9:	41 b8 20 45 60 00    	mov    $0x604520,%r8d
  401aaf:	8b 0d 43 2a 20 00    	mov    0x202a43(%rip),%ecx        # 6044f8 <check_level>
  401ab5:	be a3 32 40 00       	mov    $0x4032a3,%esi
  401aba:	bf 01 00 00 00       	mov    $0x1,%edi
  401abf:	b8 00 00 00 00       	mov    $0x0,%eax
  401ac4:	e8 17 f3 ff ff       	callq  400de0 <__printf_chk@plt>
  401ac9:	bf 01 00 00 00       	mov    $0x1,%edi
  401ace:	e8 5d f3 ff ff       	callq  400e30 <exit@plt>

0000000000401ad3 <Gets>:
  401ad3:	41 54                	push   %r12
  401ad5:	55                   	push   %rbp
  401ad6:	53                   	push   %rbx
  401ad7:	49 89 fc             	mov    %rdi,%r12
  401ada:	c7 05 40 36 20 00 00 	movl   $0x0,0x203640(%rip)        # 605124 <gets_cnt>
  401ae1:	00 00 00 
  401ae4:	48 89 fb             	mov    %rdi,%rbx
  401ae7:	eb 11                	jmp    401afa <Gets+0x27>
  401ae9:	48 8d 6b 01          	lea    0x1(%rbx),%rbp
  401aed:	88 03                	mov    %al,(%rbx)
  401aef:	0f b6 f8             	movzbl %al,%edi
  401af2:	e8 3c ff ff ff       	callq  401a33 <save_char>
  401af7:	48 89 eb             	mov    %rbp,%rbx
  401afa:	48 8b 3d ef 29 20 00 	mov    0x2029ef(%rip),%rdi        # 6044f0 <infile>
  401b01:	e8 aa f2 ff ff       	callq  400db0 <_IO_getc@plt>
  401b06:	83 f8 ff             	cmp    $0xffffffff,%eax
  401b09:	74 05                	je     401b10 <Gets+0x3d>
  401b0b:	83 f8 0a             	cmp    $0xa,%eax
  401b0e:	75 d9                	jne    401ae9 <Gets+0x16>
  401b10:	c6 03 00             	movb   $0x0,(%rbx)
  401b13:	b8 00 00 00 00       	mov    $0x0,%eax
  401b18:	e8 6e ff ff ff       	callq  401a8b <save_term>
  401b1d:	4c 89 e0             	mov    %r12,%rax
  401b20:	5b                   	pop    %rbx
  401b21:	5d                   	pop    %rbp
  401b22:	41 5c                	pop    %r12
  401b24:	c3                   	retq   

0000000000401b25 <notify_server>:
  401b25:	55                   	push   %rbp
  401b26:	53                   	push   %rbx
  401b27:	48 81 ec 18 40 00 00 	sub    $0x4018,%rsp
  401b2e:	64 48 8b 04 25 28 00 	mov    %fs:0x28,%rax
  401b35:	00 00 
  401b37:	48 89 84 24 08 40 00 	mov    %rax,0x4008(%rsp)
  401b3e:	00 
  401b3f:	31 c0                	xor    %eax,%eax
  401b41:	83 3d c0 29 20 00 00 	cmpl   $0x0,0x2029c0(%rip)        # 604508 <is_checker>
  401b48:	0f 85 c9 00 00 00    	jne    401c17 <notify_server+0xf2>
  401b4e:	89 fb                	mov    %edi,%ebx
  401b50:	8b 05 ce 35 20 00    	mov    0x2035ce(%rip),%eax        # 605124 <gets_cnt>
  401b56:	83 c0 64             	add    $0x64,%eax
  401b59:	3d 00 20 00 00       	cmp    $0x2000,%eax
  401b5e:	0f 8f d4 00 00 00    	jg     401c38 <notify_server+0x113>
  401b64:	0f be 05 bd 35 20 00 	movsbl 0x2035bd(%rip),%eax        # 605128 <target_prefix>
  401b6b:	83 3d 16 29 20 00 00 	cmpl   $0x0,0x202916(%rip)        # 604488 <notify>
  401b72:	0f 84 de 00 00 00    	je     401c56 <notify_server+0x131>
  401b78:	8b 15 82 29 20 00    	mov    0x202982(%rip),%edx        # 604500 <authkey>
  401b7e:	85 db                	test   %ebx,%ebx
  401b80:	0f 84 da 00 00 00    	je     401c60 <notify_server+0x13b>
  401b86:	bd b9 32 40 00       	mov    $0x4032b9,%ebp
  401b8b:	68 20 45 60 00       	pushq  $0x604520
  401b90:	56                   	push   %rsi
  401b91:	50                   	push   %rax
  401b92:	52                   	push   %rdx
  401b93:	49 89 e9             	mov    %rbp,%r9
  401b96:	44 8b 05 ab 25 20 00 	mov    0x2025ab(%rip),%r8d        # 604148 <target_id>
  401b9d:	b9 c3 32 40 00       	mov    $0x4032c3,%ecx
  401ba2:	ba 00 20 00 00       	mov    $0x2000,%edx
  401ba7:	be 01 00 00 00       	mov    $0x1,%esi
  401bac:	48 8d 7c 24 20       	lea    0x20(%rsp),%rdi
  401bb1:	b8 00 00 00 00       	mov    $0x0,%eax
  401bb6:	e8 a5 f2 ff ff       	callq  400e60 <__sprintf_chk@plt>
  401bbb:	48 83 c4 20          	add    $0x20,%rsp
  401bbf:	83 3d c2 28 20 00 00 	cmpl   $0x0,0x2028c2(%rip)        # 604488 <notify>
  401bc6:	0f 84 d3 00 00 00    	je     401c9f <notify_server+0x17a>
  401bcc:	85 db                	test   %ebx,%ebx
  401bce:	0f 84 bc 00 00 00    	je     401c90 <notify_server+0x16b>
  401bd4:	4c 8d 8c 24 00 20 00 	lea    0x2000(%rsp),%r9
  401bdb:	00 
  401bdc:	41 b8 00 00 00 00    	mov    $0x0,%r8d
  401be2:	48 89 e1             	mov    %rsp,%rcx
  401be5:	48 8b 15 64 25 20 00 	mov    0x202564(%rip),%rdx        # 604150 <lab>
  401bec:	48 8b 35 65 25 20 00 	mov    0x202565(%rip),%rsi        # 604158 <course>
  401bf3:	48 8b 3d 46 25 20 00 	mov    0x202546(%rip),%rdi        # 604140 <user_id>
  401bfa:	e8 31 11 00 00       	callq  402d30 <driver_post>
  401bff:	85 c0                	test   %eax,%eax
  401c01:	78 67                	js     401c6a <notify_server+0x145>
  401c03:	bf 08 34 40 00       	mov    $0x403408,%edi
  401c08:	e8 b3 f0 ff ff       	callq  400cc0 <puts@plt>
  401c0d:	bf eb 32 40 00       	mov    $0x4032eb,%edi
  401c12:	e8 a9 f0 ff ff       	callq  400cc0 <puts@plt>
  401c17:	48 8b 84 24 08 40 00 	mov    0x4008(%rsp),%rax
  401c1e:	00 
  401c1f:	64 48 33 04 25 28 00 	xor    %fs:0x28,%rax
  401c26:	00 00 
  401c28:	0f 85 f5 00 00 00    	jne    401d23 <notify_server+0x1fe>
  401c2e:	48 81 c4 18 40 00 00 	add    $0x4018,%rsp
  401c35:	5b                   	pop    %rbx
  401c36:	5d                   	pop    %rbp
  401c37:	c3                   	retq   
  401c38:	be d8 33 40 00       	mov    $0x4033d8,%esi
  401c3d:	bf 01 00 00 00       	mov    $0x1,%edi
  401c42:	b8 00 00 00 00       	mov    $0x0,%eax
  401c47:	e8 94 f1 ff ff       	callq  400de0 <__printf_chk@plt>
  401c4c:	bf 01 00 00 00       	mov    $0x1,%edi
  401c51:	e8 da f1 ff ff       	callq  400e30 <exit@plt>
  401c56:	ba ff ff ff ff       	mov    $0xffffffff,%edx
  401c5b:	e9 1e ff ff ff       	jmpq   401b7e <notify_server+0x59>
  401c60:	bd be 32 40 00       	mov    $0x4032be,%ebp
  401c65:	e9 21 ff ff ff       	jmpq   401b8b <notify_server+0x66>
  401c6a:	48 8d 94 24 00 20 00 	lea    0x2000(%rsp),%rdx
  401c71:	00 
  401c72:	be df 32 40 00       	mov    $0x4032df,%esi
  401c77:	bf 01 00 00 00       	mov    $0x1,%edi
  401c7c:	b8 00 00 00 00       	mov    $0x0,%eax
  401c81:	e8 5a f1 ff ff       	callq  400de0 <__printf_chk@plt>
  401c86:	bf 01 00 00 00       	mov    $0x1,%edi
  401c8b:	e8 a0 f1 ff ff       	callq  400e30 <exit@plt>
  401c90:	bf f5 32 40 00       	mov    $0x4032f5,%edi
  401c95:	e8 26 f0 ff ff       	callq  400cc0 <puts@plt>
  401c9a:	e9 78 ff ff ff       	jmpq   401c17 <notify_server+0xf2>
  401c9f:	48 89 ea             	mov    %rbp,%rdx
  401ca2:	be 40 34 40 00       	mov    $0x403440,%esi
  401ca7:	bf 01 00 00 00       	mov    $0x1,%edi
  401cac:	b8 00 00 00 00       	mov    $0x0,%eax
  401cb1:	e8 2a f1 ff ff       	callq  400de0 <__printf_chk@plt>
  401cb6:	48 8b 15 83 24 20 00 	mov    0x202483(%rip),%rdx        # 604140 <user_id>
  401cbd:	be fc 32 40 00       	mov    $0x4032fc,%esi
  401cc2:	bf 01 00 00 00       	mov    $0x1,%edi
  401cc7:	b8 00 00 00 00       	mov    $0x0,%eax
  401ccc:	e8 0f f1 ff ff       	callq  400de0 <__printf_chk@plt>
  401cd1:	48 8b 15 80 24 20 00 	mov    0x202480(%rip),%rdx        # 604158 <course>
  401cd8:	be 09 33 40 00       	mov    $0x403309,%esi
  401cdd:	bf 01 00 00 00       	mov    $0x1,%edi
  401ce2:	b8 00 00 00 00       	mov    $0x0,%eax
  401ce7:	e8 f4 f0 ff ff       	callq  400de0 <__printf_chk@plt>
  401cec:	48 8b 15 5d 24 20 00 	mov    0x20245d(%rip),%rdx        # 604150 <lab>
  401cf3:	be 15 33 40 00       	mov    $0x403315,%esi
  401cf8:	bf 01 00 00 00       	mov    $0x1,%edi
  401cfd:	b8 00 00 00 00       	mov    $0x0,%eax
  401d02:	e8 d9 f0 ff ff       	callq  400de0 <__printf_chk@plt>
  401d07:	48 89 e2             	mov    %rsp,%rdx
  401d0a:	be 1e 33 40 00       	mov    $0x40331e,%esi
  401d0f:	bf 01 00 00 00       	mov    $0x1,%edi
  401d14:	b8 00 00 00 00       	mov    $0x0,%eax
  401d19:	e8 c2 f0 ff ff       	callq  400de0 <__printf_chk@plt>
  401d1e:	e9 f4 fe ff ff       	jmpq   401c17 <notify_server+0xf2>
  401d23:	e8 b8 ef ff ff       	callq  400ce0 <__stack_chk_fail@plt>

0000000000401d28 <validate>:
  401d28:	53                   	push   %rbx
  401d29:	89 fb                	mov    %edi,%ebx
  401d2b:	83 3d d6 27 20 00 00 	cmpl   $0x0,0x2027d6(%rip)        # 604508 <is_checker>
  401d32:	74 6b                	je     401d9f <validate+0x77>
  401d34:	39 3d c2 27 20 00    	cmp    %edi,0x2027c2(%rip)        # 6044fc <vlevel>
  401d3a:	75 2f                	jne    401d6b <validate+0x43>
  401d3c:	8b 15 b6 27 20 00    	mov    0x2027b6(%rip),%edx        # 6044f8 <check_level>
  401d42:	39 fa                	cmp    %edi,%edx
  401d44:	75 39                	jne    401d7f <validate+0x57>
  401d46:	0f be 15 db 33 20 00 	movsbl 0x2033db(%rip),%edx        # 605128 <target_prefix>
  401d4d:	41 b8 20 45 60 00    	mov    $0x604520,%r8d
  401d53:	89 f9                	mov    %edi,%ecx
  401d55:	be 48 33 40 00       	mov    $0x403348,%esi
  401d5a:	bf 01 00 00 00       	mov    $0x1,%edi
  401d5f:	b8 00 00 00 00       	mov    $0x0,%eax
  401d64:	e8 77 f0 ff ff       	callq  400de0 <__printf_chk@plt>
  401d69:	5b                   	pop    %rbx
  401d6a:	c3                   	retq   
  401d6b:	bf 2a 33 40 00       	mov    $0x40332a,%edi
  401d70:	e8 4b ef ff ff       	callq  400cc0 <puts@plt>
  401d75:	b8 00 00 00 00       	mov    $0x0,%eax
  401d7a:	e8 1f fd ff ff       	callq  401a9e <check_fail>
  401d7f:	89 f9                	mov    %edi,%ecx
  401d81:	be 68 34 40 00       	mov    $0x403468,%esi
  401d86:	bf 01 00 00 00       	mov    $0x1,%edi
  401d8b:	b8 00 00 00 00       	mov    $0x0,%eax
  401d90:	e8 4b f0 ff ff       	callq  400de0 <__printf_chk@plt>
  401d95:	b8 00 00 00 00       	mov    $0x0,%eax
  401d9a:	e8 ff fc ff ff       	callq  401a9e <check_fail>
  401d9f:	39 3d 57 27 20 00    	cmp    %edi,0x202757(%rip)        # 6044fc <vlevel>
  401da5:	74 18                	je     401dbf <validate+0x97>
  401da7:	bf 2a 33 40 00       	mov    $0x40332a,%edi
  401dac:	e8 0f ef ff ff       	callq  400cc0 <puts@plt>
  401db1:	89 de                	mov    %ebx,%esi
  401db3:	bf 00 00 00 00       	mov    $0x0,%edi
  401db8:	e8 68 fd ff ff       	callq  401b25 <notify_server>
  401dbd:	eb aa                	jmp    401d69 <validate+0x41>
  401dbf:	0f be 0d 62 33 20 00 	movsbl 0x203362(%rip),%ecx        # 605128 <target_prefix>
  401dc6:	89 fa                	mov    %edi,%edx
  401dc8:	be 90 34 40 00       	mov    $0x403490,%esi
  401dcd:	bf 01 00 00 00       	mov    $0x1,%edi
  401dd2:	b8 00 00 00 00       	mov    $0x0,%eax
  401dd7:	e8 04 f0 ff ff       	callq  400de0 <__printf_chk@plt>
  401ddc:	89 de                	mov    %ebx,%esi
  401dde:	bf 01 00 00 00       	mov    $0x1,%edi
  401de3:	e8 3d fd ff ff       	callq  401b25 <notify_server>
  401de8:	e9 7c ff ff ff       	jmpq   401d69 <validate+0x41>

0000000000401ded <fail>:
  401ded:	48 83 ec 08          	sub    $0x8,%rsp
  401df1:	83 3d 10 27 20 00 00 	cmpl   $0x0,0x202710(%rip)        # 604508 <is_checker>
  401df8:	75 11                	jne    401e0b <fail+0x1e>
  401dfa:	89 fe                	mov    %edi,%esi
  401dfc:	bf 00 00 00 00       	mov    $0x0,%edi
  401e01:	e8 1f fd ff ff       	callq  401b25 <notify_server>
  401e06:	48 83 c4 08          	add    $0x8,%rsp
  401e0a:	c3                   	retq   
  401e0b:	b8 00 00 00 00       	mov    $0x0,%eax
  401e10:	e8 89 fc ff ff       	callq  401a9e <check_fail>

0000000000401e15 <bushandler>:
  401e15:	48 83 ec 08          	sub    $0x8,%rsp
  401e19:	83 3d e8 26 20 00 00 	cmpl   $0x0,0x2026e8(%rip)        # 604508 <is_checker>
  401e20:	74 14                	je     401e36 <bushandler+0x21>
  401e22:	bf 5d 33 40 00       	mov    $0x40335d,%edi
  401e27:	e8 94 ee ff ff       	callq  400cc0 <puts@plt>
  401e2c:	b8 00 00 00 00       	mov    $0x0,%eax
  401e31:	e8 68 fc ff ff       	callq  401a9e <check_fail>
  401e36:	bf c8 34 40 00       	mov    $0x4034c8,%edi
  401e3b:	e8 80 ee ff ff       	callq  400cc0 <puts@plt>
  401e40:	bf 67 33 40 00       	mov    $0x403367,%edi
  401e45:	e8 76 ee ff ff       	callq  400cc0 <puts@plt>
  401e4a:	be 00 00 00 00       	mov    $0x0,%esi
  401e4f:	bf 00 00 00 00       	mov    $0x0,%edi
  401e54:	e8 cc fc ff ff       	callq  401b25 <notify_server>
  401e59:	bf 01 00 00 00       	mov    $0x1,%edi
  401e5e:	e8 cd ef ff ff       	callq  400e30 <exit@plt>

0000000000401e63 <seghandler>:
  401e63:	48 83 ec 08          	sub    $0x8,%rsp
  401e67:	83 3d 9a 26 20 00 00 	cmpl   $0x0,0x20269a(%rip)        # 604508 <is_checker>
  401e6e:	74 14                	je     401e84 <seghandler+0x21>
  401e70:	bf 7d 33 40 00       	mov    $0x40337d,%edi
  401e75:	e8 46 ee ff ff       	callq  400cc0 <puts@plt>
  401e7a:	b8 00 00 00 00       	mov    $0x0,%eax
  401e7f:	e8 1a fc ff ff       	callq  401a9e <check_fail>
  401e84:	bf e8 34 40 00       	mov    $0x4034e8,%edi
  401e89:	e8 32 ee ff ff       	callq  400cc0 <puts@plt>
  401e8e:	bf 67 33 40 00       	mov    $0x403367,%edi
  401e93:	e8 28 ee ff ff       	callq  400cc0 <puts@plt>
  401e98:	be 00 00 00 00       	mov    $0x0,%esi
  401e9d:	bf 00 00 00 00       	mov    $0x0,%edi
  401ea2:	e8 7e fc ff ff       	callq  401b25 <notify_server>
  401ea7:	bf 01 00 00 00       	mov    $0x1,%edi
  401eac:	e8 7f ef ff ff       	callq  400e30 <exit@plt>

0000000000401eb1 <illegalhandler>:
  401eb1:	48 83 ec 08          	sub    $0x8,%rsp
  401eb5:	83 3d 4c 26 20 00 00 	cmpl   $0x0,0x20264c(%rip)        # 604508 <is_checker>
  401ebc:	74 14                	je     401ed2 <illegalhandler+0x21>
  401ebe:	bf 90 33 40 00       	mov    $0x403390,%edi
  401ec3:	e8 f8 ed ff ff       	callq  400cc0 <puts@plt>
  401ec8:	b8 00 00 00 00       	mov    $0x0,%eax
  401ecd:	e8 cc fb ff ff       	callq  401a9e <check_fail>
  401ed2:	bf 10 35 40 00       	mov    $0x403510,%edi
  401ed7:	e8 e4 ed ff ff       	callq  400cc0 <puts@plt>
  401edc:	bf 67 33 40 00       	mov    $0x403367,%edi
  401ee1:	e8 da ed ff ff       	callq  400cc0 <puts@plt>
  401ee6:	be 00 00 00 00       	mov    $0x0,%esi
  401eeb:	bf 00 00 00 00       	mov    $0x0,%edi
  401ef0:	e8 30 fc ff ff       	callq  401b25 <notify_server>
  401ef5:	bf 01 00 00 00       	mov    $0x1,%edi
  401efa:	e8 31 ef ff ff       	callq  400e30 <exit@plt>

0000000000401eff <sigalrmhandler>:
  401eff:	48 83 ec 08          	sub    $0x8,%rsp
  401f03:	83 3d fe 25 20 00 00 	cmpl   $0x0,0x2025fe(%rip)        # 604508 <is_checker>
  401f0a:	74 14                	je     401f20 <sigalrmhandler+0x21>
  401f0c:	bf a4 33 40 00       	mov    $0x4033a4,%edi
  401f11:	e8 aa ed ff ff       	callq  400cc0 <puts@plt>
  401f16:	b8 00 00 00 00       	mov    $0x0,%eax
  401f1b:	e8 7e fb ff ff       	callq  401a9e <check_fail>
  401f20:	ba 05 00 00 00       	mov    $0x5,%edx
  401f25:	be 40 35 40 00       	mov    $0x403540,%esi
  401f2a:	bf 01 00 00 00       	mov    $0x1,%edi
  401f2f:	b8 00 00 00 00       	mov    $0x0,%eax
  401f34:	e8 a7 ee ff ff       	callq  400de0 <__printf_chk@plt>
  401f39:	be 00 00 00 00       	mov    $0x0,%esi
  401f3e:	bf 00 00 00 00       	mov    $0x0,%edi
  401f43:	e8 dd fb ff ff       	callq  401b25 <notify_server>
  401f48:	bf 01 00 00 00       	mov    $0x1,%edi
  401f4d:	e8 de ee ff ff       	callq  400e30 <exit@plt>

0000000000401f52 <launch>:
  401f52:	55                   	push   %rbp
  401f53:	48 89 e5             	mov    %rsp,%rbp
  401f56:	48 83 ec 10          	sub    $0x10,%rsp
  401f5a:	48 89 fa             	mov    %rdi,%rdx
  401f5d:	64 48 8b 04 25 28 00 	mov    %fs:0x28,%rax
  401f64:	00 00 
  401f66:	48 89 45 f8          	mov    %rax,-0x8(%rbp)
  401f6a:	31 c0                	xor    %eax,%eax
  401f6c:	48 8d 47 1e          	lea    0x1e(%rdi),%rax
  401f70:	48 83 e0 f0          	and    $0xfffffffffffffff0,%rax
  401f74:	48 29 c4             	sub    %rax,%rsp
  401f77:	48 8d 7c 24 0f       	lea    0xf(%rsp),%rdi
  401f7c:	48 83 e7 f0          	and    $0xfffffffffffffff0,%rdi
  401f80:	be f4 00 00 00       	mov    $0xf4,%esi
  401f85:	e8 76 ed ff ff       	callq  400d00 <memset@plt>
  401f8a:	48 8b 05 0f 25 20 00 	mov    0x20250f(%rip),%rax        # 6044a0 <stdin@@GLIBC_2.2.5>
  401f91:	48 39 05 58 25 20 00 	cmp    %rax,0x202558(%rip)        # 6044f0 <infile>
  401f98:	74 38                	je     401fd2 <launch+0x80>
  401f9a:	c7 05 58 25 20 00 00 	movl   $0x0,0x202558(%rip)        # 6044fc <vlevel>
  401fa1:	00 00 00 
  401fa4:	b8 00 00 00 00       	mov    $0x0,%eax
  401fa9:	e8 5c fa ff ff       	callq  401a0a <test>
  401fae:	83 3d 53 25 20 00 00 	cmpl   $0x0,0x202553(%rip)        # 604508 <is_checker>
  401fb5:	75 31                	jne    401fe8 <launch+0x96>
  401fb7:	bf c4 33 40 00       	mov    $0x4033c4,%edi
  401fbc:	e8 ff ec ff ff       	callq  400cc0 <puts@plt>
  401fc1:	48 8b 45 f8          	mov    -0x8(%rbp),%rax
  401fc5:	64 48 33 04 25 28 00 	xor    %fs:0x28,%rax
  401fcc:	00 00 
  401fce:	75 2c                	jne    401ffc <launch+0xaa>
  401fd0:	c9                   	leaveq 
  401fd1:	c3                   	retq   
  401fd2:	be ac 33 40 00       	mov    $0x4033ac,%esi
  401fd7:	bf 01 00 00 00       	mov    $0x1,%edi
  401fdc:	b8 00 00 00 00       	mov    $0x0,%eax
  401fe1:	e8 fa ed ff ff       	callq  400de0 <__printf_chk@plt>
  401fe6:	eb b2                	jmp    401f9a <launch+0x48>
  401fe8:	bf b9 33 40 00       	mov    $0x4033b9,%edi
  401fed:	e8 ce ec ff ff       	callq  400cc0 <puts@plt>
  401ff2:	b8 00 00 00 00       	mov    $0x0,%eax
  401ff7:	e8 a2 fa ff ff       	callq  401a9e <check_fail>
  401ffc:	e8 df ec ff ff       	callq  400ce0 <__stack_chk_fail@plt>

0000000000402001 <stable_launch>:
  402001:	53                   	push   %rbx
  402002:	48 89 3d df 24 20 00 	mov    %rdi,0x2024df(%rip)        # 6044e8 <global_offset>
  402009:	41 b9 00 00 00 00    	mov    $0x0,%r9d
  40200f:	41 b8 00 00 00 00    	mov    $0x0,%r8d
  402015:	b9 32 01 00 00       	mov    $0x132,%ecx
  40201a:	ba 07 00 00 00       	mov    $0x7,%edx
  40201f:	be 00 00 10 00       	mov    $0x100000,%esi
  402024:	bf 00 60 58 55       	mov    $0x55586000,%edi
  402029:	e8 c2 ec ff ff       	callq  400cf0 <mmap@plt>
  40202e:	48 89 c3             	mov    %rax,%rbx
  402031:	48 3d 00 60 58 55    	cmp    $0x55586000,%rax
  402037:	75 43                	jne    40207c <stable_launch+0x7b>
  402039:	48 8d 90 f8 ff 0f 00 	lea    0xffff8(%rax),%rdx
  402040:	48 89 15 e9 30 20 00 	mov    %rdx,0x2030e9(%rip)        # 605130 <stack_top>
  402047:	48 89 e0             	mov    %rsp,%rax
  40204a:	48 89 d4             	mov    %rdx,%rsp
  40204d:	48 89 c2             	mov    %rax,%rdx
  402050:	48 89 15 89 24 20 00 	mov    %rdx,0x202489(%rip)        # 6044e0 <global_save_stack>
  402057:	48 8b 3d 8a 24 20 00 	mov    0x20248a(%rip),%rdi        # 6044e8 <global_offset>
  40205e:	e8 ef fe ff ff       	callq  401f52 <launch>
  402063:	48 8b 05 76 24 20 00 	mov    0x202476(%rip),%rax        # 6044e0 <global_save_stack>
  40206a:	48 89 c4             	mov    %rax,%rsp
  40206d:	be 00 00 10 00       	mov    $0x100000,%esi
  402072:	48 89 df             	mov    %rbx,%rdi
  402075:	e8 56 ed ff ff       	callq  400dd0 <munmap@plt>
  40207a:	5b                   	pop    %rbx
  40207b:	c3                   	retq   
  40207c:	be 00 00 10 00       	mov    $0x100000,%esi
  402081:	48 89 c7             	mov    %rax,%rdi
  402084:	e8 47 ed ff ff       	callq  400dd0 <munmap@plt>
  402089:	b9 00 60 58 55       	mov    $0x55586000,%ecx
  40208e:	ba 78 35 40 00       	mov    $0x403578,%edx
  402093:	be 01 00 00 00       	mov    $0x1,%esi
  402098:	48 8b 3d 21 24 20 00 	mov    0x202421(%rip),%rdi        # 6044c0 <stderr@@GLIBC_2.2.5>
  40209f:	b8 00 00 00 00       	mov    $0x0,%eax
  4020a4:	e8 a7 ed ff ff       	callq  400e50 <__fprintf_chk@plt>
  4020a9:	bf 01 00 00 00       	mov    $0x1,%edi
  4020ae:	e8 7d ed ff ff       	callq  400e30 <exit@plt>

00000000004020b3 <rio_readinitb>:
  4020b3:	89 37                	mov    %esi,(%rdi)
  4020b5:	c7 47 04 00 00 00 00 	movl   $0x0,0x4(%rdi)
  4020bc:	48 8d 47 10          	lea    0x10(%rdi),%rax
  4020c0:	48 89 47 08          	mov    %rax,0x8(%rdi)
  4020c4:	c3                   	retq   

00000000004020c5 <sigalrm_handler>:
  4020c5:	48 83 ec 08          	sub    $0x8,%rsp
  4020c9:	b9 00 00 00 00       	mov    $0x0,%ecx
  4020ce:	ba b0 35 40 00       	mov    $0x4035b0,%edx
  4020d3:	be 01 00 00 00       	mov    $0x1,%esi
  4020d8:	48 8b 3d e1 23 20 00 	mov    0x2023e1(%rip),%rdi        # 6044c0 <stderr@@GLIBC_2.2.5>
  4020df:	b8 00 00 00 00       	mov    $0x0,%eax
  4020e4:	e8 67 ed ff ff       	callq  400e50 <__fprintf_chk@plt>
  4020e9:	bf 01 00 00 00       	mov    $0x1,%edi
  4020ee:	e8 3d ed ff ff       	callq  400e30 <exit@plt>

00000000004020f3 <rio_writen>:
  4020f3:	41 55                	push   %r13
  4020f5:	41 54                	push   %r12
  4020f7:	55                   	push   %rbp
  4020f8:	53                   	push   %rbx
  4020f9:	48 83 ec 08          	sub    $0x8,%rsp
  4020fd:	41 89 fc             	mov    %edi,%r12d
  402100:	48 89 f5             	mov    %rsi,%rbp
  402103:	49 89 d5             	mov    %rdx,%r13
  402106:	48 89 d3             	mov    %rdx,%rbx
  402109:	eb 06                	jmp    402111 <rio_writen+0x1e>
  40210b:	48 29 c3             	sub    %rax,%rbx
  40210e:	48 01 c5             	add    %rax,%rbp
  402111:	48 85 db             	test   %rbx,%rbx
  402114:	74 24                	je     40213a <rio_writen+0x47>
  402116:	48 89 da             	mov    %rbx,%rdx
  402119:	48 89 ee             	mov    %rbp,%rsi
  40211c:	44 89 e7             	mov    %r12d,%edi
  40211f:	e8 ac eb ff ff       	callq  400cd0 <write@plt>
  402124:	48 85 c0             	test   %rax,%rax
  402127:	7f e2                	jg     40210b <rio_writen+0x18>
  402129:	e8 52 eb ff ff       	callq  400c80 <__errno_location@plt>
  40212e:	83 38 04             	cmpl   $0x4,(%rax)
  402131:	75 15                	jne    402148 <rio_writen+0x55>
  402133:	b8 00 00 00 00       	mov    $0x0,%eax
  402138:	eb d1                	jmp    40210b <rio_writen+0x18>
  40213a:	4c 89 e8             	mov    %r13,%rax
  40213d:	48 83 c4 08          	add    $0x8,%rsp
  402141:	5b                   	pop    %rbx
  402142:	5d                   	pop    %rbp
  402143:	41 5c                	pop    %r12
  402145:	41 5d                	pop    %r13
  402147:	c3                   	retq   
  402148:	48 c7 c0 ff ff ff ff 	mov    $0xffffffffffffffff,%rax
  40214f:	eb ec                	jmp    40213d <rio_writen+0x4a>

0000000000402151 <rio_read>:
  402151:	41 55                	push   %r13
  402153:	41 54                	push   %r12
  402155:	55                   	push   %rbp
  402156:	53                   	push   %rbx
  402157:	48 83 ec 08          	sub    $0x8,%rsp
  40215b:	48 89 fb             	mov    %rdi,%rbx
  40215e:	49 89 f5             	mov    %rsi,%r13
  402161:	49 89 d4             	mov    %rdx,%r12
  402164:	eb 0a                	jmp    402170 <rio_read+0x1f>
  402166:	e8 15 eb ff ff       	callq  400c80 <__errno_location@plt>
  40216b:	83 38 04             	cmpl   $0x4,(%rax)
  40216e:	75 5c                	jne    4021cc <rio_read+0x7b>
  402170:	8b 6b 04             	mov    0x4(%rbx),%ebp
  402173:	85 ed                	test   %ebp,%ebp
  402175:	7f 24                	jg     40219b <rio_read+0x4a>
  402177:	48 8d 6b 10          	lea    0x10(%rbx),%rbp
  40217b:	8b 3b                	mov    (%rbx),%edi
  40217d:	ba 00 20 00 00       	mov    $0x2000,%edx
  402182:	48 89 ee             	mov    %rbp,%rsi
  402185:	e8 a6 eb ff ff       	callq  400d30 <read@plt>
  40218a:	89 43 04             	mov    %eax,0x4(%rbx)
  40218d:	85 c0                	test   %eax,%eax
  40218f:	78 d5                	js     402166 <rio_read+0x15>
  402191:	85 c0                	test   %eax,%eax
  402193:	74 40                	je     4021d5 <rio_read+0x84>
  402195:	48 89 6b 08          	mov    %rbp,0x8(%rbx)
  402199:	eb d5                	jmp    402170 <rio_read+0x1f>
  40219b:	89 e8                	mov    %ebp,%eax
  40219d:	4c 39 e0             	cmp    %r12,%rax
  4021a0:	72 03                	jb     4021a5 <rio_read+0x54>
  4021a2:	44 89 e5             	mov    %r12d,%ebp
  4021a5:	4c 63 e5             	movslq %ebp,%r12
  4021a8:	48 8b 73 08          	mov    0x8(%rbx),%rsi
  4021ac:	4c 89 e2             	mov    %r12,%rdx
  4021af:	4c 89 ef             	mov    %r13,%rdi
  4021b2:	e8 c9 eb ff ff       	callq  400d80 <memcpy@plt>
  4021b7:	4c 01 63 08          	add    %r12,0x8(%rbx)
  4021bb:	29 6b 04             	sub    %ebp,0x4(%rbx)
  4021be:	4c 89 e0             	mov    %r12,%rax
  4021c1:	48 83 c4 08          	add    $0x8,%rsp
  4021c5:	5b                   	pop    %rbx
  4021c6:	5d                   	pop    %rbp
  4021c7:	41 5c                	pop    %r12
  4021c9:	41 5d                	pop    %r13
  4021cb:	c3                   	retq   
  4021cc:	48 c7 c0 ff ff ff ff 	mov    $0xffffffffffffffff,%rax
  4021d3:	eb ec                	jmp    4021c1 <rio_read+0x70>
  4021d5:	b8 00 00 00 00       	mov    $0x0,%eax
  4021da:	eb e5                	jmp    4021c1 <rio_read+0x70>

00000000004021dc <rio_readlineb>:
  4021dc:	41 55                	push   %r13
  4021de:	41 54                	push   %r12
  4021e0:	55                   	push   %rbp
  4021e1:	53                   	push   %rbx
  4021e2:	48 83 ec 18          	sub    $0x18,%rsp
  4021e6:	49 89 fd             	mov    %rdi,%r13
  4021e9:	48 89 f5             	mov    %rsi,%rbp
  4021ec:	49 89 d4             	mov    %rdx,%r12
  4021ef:	64 48 8b 04 25 28 00 	mov    %fs:0x28,%rax
  4021f6:	00 00 
  4021f8:	48 89 44 24 08       	mov    %rax,0x8(%rsp)
  4021fd:	31 c0                	xor    %eax,%eax
  4021ff:	bb 01 00 00 00       	mov    $0x1,%ebx
  402204:	4c 39 e3             	cmp    %r12,%rbx
  402207:	73 47                	jae    402250 <rio_readlineb+0x74>
  402209:	ba 01 00 00 00       	mov    $0x1,%edx
  40220e:	48 8d 74 24 07       	lea    0x7(%rsp),%rsi
  402213:	4c 89 ef             	mov    %r13,%rdi
  402216:	e8 36 ff ff ff       	callq  402151 <rio_read>
  40221b:	83 f8 01             	cmp    $0x1,%eax
  40221e:	75 1c                	jne    40223c <rio_readlineb+0x60>
  402220:	48 8d 45 01          	lea    0x1(%rbp),%rax
  402224:	0f b6 54 24 07       	movzbl 0x7(%rsp),%edx
  402229:	88 55 00             	mov    %dl,0x0(%rbp)
  40222c:	80 7c 24 07 0a       	cmpb   $0xa,0x7(%rsp)
  402231:	74 1a                	je     40224d <rio_readlineb+0x71>
  402233:	48 83 c3 01          	add    $0x1,%rbx
  402237:	48 89 c5             	mov    %rax,%rbp
  40223a:	eb c8                	jmp    402204 <rio_readlineb+0x28>
  40223c:	85 c0                	test   %eax,%eax
  40223e:	75 32                	jne    402272 <rio_readlineb+0x96>
  402240:	48 83 fb 01          	cmp    $0x1,%rbx
  402244:	75 0a                	jne    402250 <rio_readlineb+0x74>
  402246:	b8 00 00 00 00       	mov    $0x0,%eax
  40224b:	eb 0a                	jmp    402257 <rio_readlineb+0x7b>
  40224d:	48 89 c5             	mov    %rax,%rbp
  402250:	c6 45 00 00          	movb   $0x0,0x0(%rbp)
  402254:	48 89 d8             	mov    %rbx,%rax
  402257:	48 8b 4c 24 08       	mov    0x8(%rsp),%rcx
  40225c:	64 48 33 0c 25 28 00 	xor    %fs:0x28,%rcx
  402263:	00 00 
  402265:	75 14                	jne    40227b <rio_readlineb+0x9f>
  402267:	48 83 c4 18          	add    $0x18,%rsp
  40226b:	5b                   	pop    %rbx
  40226c:	5d                   	pop    %rbp
  40226d:	41 5c                	pop    %r12
  40226f:	41 5d                	pop    %r13
  402271:	c3                   	retq   
  402272:	48 c7 c0 ff ff ff ff 	mov    $0xffffffffffffffff,%rax
  402279:	eb dc                	jmp    402257 <rio_readlineb+0x7b>
  40227b:	e8 60 ea ff ff       	callq  400ce0 <__stack_chk_fail@plt>

0000000000402280 <urlencode>:
  402280:	41 54                	push   %r12
  402282:	55                   	push   %rbp
  402283:	53                   	push   %rbx
  402284:	48 83 ec 10          	sub    $0x10,%rsp
  402288:	48 89 fb             	mov    %rdi,%rbx
  40228b:	48 89 f5             	mov    %rsi,%rbp
  40228e:	64 48 8b 04 25 28 00 	mov    %fs:0x28,%rax
  402295:	00 00 
  402297:	48 89 44 24 08       	mov    %rax,0x8(%rsp)
  40229c:	31 c0                	xor    %eax,%eax
  40229e:	48 c7 c1 ff ff ff ff 	mov    $0xffffffffffffffff,%rcx
  4022a5:	f2 ae                	repnz scas %es:(%rdi),%al
  4022a7:	48 89 ce             	mov    %rcx,%rsi
  4022aa:	48 f7 d6             	not    %rsi
  4022ad:	8d 46 ff             	lea    -0x1(%rsi),%eax
  4022b0:	eb 0f                	jmp    4022c1 <urlencode+0x41>
  4022b2:	44 88 45 00          	mov    %r8b,0x0(%rbp)
  4022b6:	48 8d 6d 01          	lea    0x1(%rbp),%rbp
  4022ba:	48 83 c3 01          	add    $0x1,%rbx
  4022be:	44 89 e0             	mov    %r12d,%eax
  4022c1:	44 8d 60 ff          	lea    -0x1(%rax),%r12d
  4022c5:	85 c0                	test   %eax,%eax
  4022c7:	0f 84 a6 00 00 00    	je     402373 <urlencode+0xf3>
  4022cd:	44 0f b6 03          	movzbl (%rbx),%r8d
  4022d1:	41 80 f8 2a          	cmp    $0x2a,%r8b
  4022d5:	0f 94 c2             	sete   %dl
  4022d8:	41 80 f8 2d          	cmp    $0x2d,%r8b
  4022dc:	0f 94 c0             	sete   %al
  4022df:	08 c2                	or     %al,%dl
  4022e1:	75 cf                	jne    4022b2 <urlencode+0x32>
  4022e3:	41 80 f8 2e          	cmp    $0x2e,%r8b
  4022e7:	74 c9                	je     4022b2 <urlencode+0x32>
  4022e9:	41 80 f8 5f          	cmp    $0x5f,%r8b
  4022ed:	74 c3                	je     4022b2 <urlencode+0x32>
  4022ef:	41 8d 40 d0          	lea    -0x30(%r8),%eax
  4022f3:	3c 09                	cmp    $0x9,%al
  4022f5:	76 bb                	jbe    4022b2 <urlencode+0x32>
  4022f7:	41 8d 40 bf          	lea    -0x41(%r8),%eax
  4022fb:	3c 19                	cmp    $0x19,%al
  4022fd:	76 b3                	jbe    4022b2 <urlencode+0x32>
  4022ff:	41 8d 40 9f          	lea    -0x61(%r8),%eax
  402303:	3c 19                	cmp    $0x19,%al
  402305:	76 ab                	jbe    4022b2 <urlencode+0x32>
  402307:	41 80 f8 20          	cmp    $0x20,%r8b
  40230b:	74 54                	je     402361 <urlencode+0xe1>
  40230d:	41 8d 40 e0          	lea    -0x20(%r8),%eax
  402311:	3c 5f                	cmp    $0x5f,%al
  402313:	0f 96 c2             	setbe  %dl
  402316:	41 80 f8 09          	cmp    $0x9,%r8b
  40231a:	0f 94 c0             	sete   %al
  40231d:	08 c2                	or     %al,%dl
  40231f:	74 4d                	je     40236e <urlencode+0xee>
  402321:	45 0f b6 c0          	movzbl %r8b,%r8d
  402325:	b9 48 36 40 00       	mov    $0x403648,%ecx
  40232a:	ba 08 00 00 00       	mov    $0x8,%edx
  40232f:	be 01 00 00 00       	mov    $0x1,%esi
  402334:	48 89 e7             	mov    %rsp,%rdi
  402337:	b8 00 00 00 00       	mov    $0x0,%eax
  40233c:	e8 1f eb ff ff       	callq  400e60 <__sprintf_chk@plt>
  402341:	0f b6 04 24          	movzbl (%rsp),%eax
  402345:	88 45 00             	mov    %al,0x0(%rbp)
  402348:	0f b6 44 24 01       	movzbl 0x1(%rsp),%eax
  40234d:	88 45 01             	mov    %al,0x1(%rbp)
  402350:	0f b6 44 24 02       	movzbl 0x2(%rsp),%eax
  402355:	88 45 02             	mov    %al,0x2(%rbp)
  402358:	48 8d 6d 03          	lea    0x3(%rbp),%rbp
  40235c:	e9 59 ff ff ff       	jmpq   4022ba <urlencode+0x3a>
  402361:	c6 45 00 2b          	movb   $0x2b,0x0(%rbp)
  402365:	48 8d 6d 01          	lea    0x1(%rbp),%rbp
  402369:	e9 4c ff ff ff       	jmpq   4022ba <urlencode+0x3a>
  40236e:	b8 ff ff ff ff       	mov    $0xffffffff,%eax
  402373:	48 8b 74 24 08       	mov    0x8(%rsp),%rsi
  402378:	64 48 33 34 25 28 00 	xor    %fs:0x28,%rsi
  40237f:	00 00 
  402381:	75 09                	jne    40238c <urlencode+0x10c>
  402383:	48 83 c4 10          	add    $0x10,%rsp
  402387:	5b                   	pop    %rbx
  402388:	5d                   	pop    %rbp
  402389:	41 5c                	pop    %r12
  40238b:	c3                   	retq   
  40238c:	e8 4f e9 ff ff       	callq  400ce0 <__stack_chk_fail@plt>

0000000000402391 <submitr>:
  402391:	41 57                	push   %r15
  402393:	41 56                	push   %r14
  402395:	41 55                	push   %r13
  402397:	41 54                	push   %r12
  402399:	55                   	push   %rbp
  40239a:	53                   	push   %rbx
  40239b:	48 81 ec 58 a0 00 00 	sub    $0xa058,%rsp
  4023a2:	49 89 fc             	mov    %rdi,%r12
  4023a5:	89 74 24 04          	mov    %esi,0x4(%rsp)
  4023a9:	49 89 d7             	mov    %rdx,%r15
  4023ac:	49 89 ce             	mov    %rcx,%r14
  4023af:	4c 89 44 24 08       	mov    %r8,0x8(%rsp)
  4023b4:	4d 89 cd             	mov    %r9,%r13
  4023b7:	48 8b ac 24 90 a0 00 	mov    0xa090(%rsp),%rbp
  4023be:	00 
  4023bf:	64 48 8b 04 25 28 00 	mov    %fs:0x28,%rax
  4023c6:	00 00 
  4023c8:	48 89 84 24 48 a0 00 	mov    %rax,0xa048(%rsp)
  4023cf:	00 
  4023d0:	31 c0                	xor    %eax,%eax
  4023d2:	c7 44 24 1c 00 00 00 	movl   $0x0,0x1c(%rsp)
  4023d9:	00 
  4023da:	ba 00 00 00 00       	mov    $0x0,%edx
  4023df:	be 01 00 00 00       	mov    $0x1,%esi
  4023e4:	bf 02 00 00 00       	mov    $0x2,%edi
  4023e9:	e8 82 ea ff ff       	callq  400e70 <socket@plt>
  4023ee:	85 c0                	test   %eax,%eax
  4023f0:	0f 88 9b 02 00 00    	js     402691 <submitr+0x300>
  4023f6:	89 c3                	mov    %eax,%ebx
  4023f8:	4c 89 e7             	mov    %r12,%rdi
  4023fb:	e8 50 e9 ff ff       	callq  400d50 <gethostbyname@plt>
  402400:	48 85 c0             	test   %rax,%rax
  402403:	0f 84 d4 02 00 00    	je     4026dd <submitr+0x34c>
  402409:	48 c7 44 24 22 00 00 	movq   $0x0,0x22(%rsp)
  402410:	00 00 
  402412:	c7 44 24 2a 00 00 00 	movl   $0x0,0x2a(%rsp)
  402419:	00 
  40241a:	66 c7 44 24 2e 00 00 	movw   $0x0,0x2e(%rsp)
  402421:	66 c7 44 24 20 02 00 	movw   $0x2,0x20(%rsp)
  402428:	48 63 50 14          	movslq 0x14(%rax),%rdx
  40242c:	48 8b 40 18          	mov    0x18(%rax),%rax
  402430:	48 8b 30             	mov    (%rax),%rsi
  402433:	48 8d 7c 24 24       	lea    0x24(%rsp),%rdi
  402438:	b9 0c 00 00 00       	mov    $0xc,%ecx
  40243d:	e8 1e e9 ff ff       	callq  400d60 <__memmove_chk@plt>
  402442:	0f b7 44 24 04       	movzwl 0x4(%rsp),%eax
  402447:	66 c1 c8 08          	ror    $0x8,%ax
  40244b:	66 89 44 24 22       	mov    %ax,0x22(%rsp)
  402450:	ba 10 00 00 00       	mov    $0x10,%edx
  402455:	48 8d 74 24 20       	lea    0x20(%rsp),%rsi
  40245a:	89 df                	mov    %ebx,%edi
  40245c:	e8 df e9 ff ff       	callq  400e40 <connect@plt>
  402461:	85 c0                	test   %eax,%eax
  402463:	0f 88 dc 02 00 00    	js     402745 <submitr+0x3b4>
  402469:	48 c7 c6 ff ff ff ff 	mov    $0xffffffffffffffff,%rsi
  402470:	b8 00 00 00 00       	mov    $0x0,%eax
  402475:	48 89 f1             	mov    %rsi,%rcx
  402478:	4c 89 ef             	mov    %r13,%rdi
  40247b:	f2 ae                	repnz scas %es:(%rdi),%al
  40247d:	48 89 ca             	mov    %rcx,%rdx
  402480:	48 f7 d2             	not    %rdx
  402483:	48 89 f1             	mov    %rsi,%rcx
  402486:	4c 89 ff             	mov    %r15,%rdi
  402489:	f2 ae                	repnz scas %es:(%rdi),%al
  40248b:	48 f7 d1             	not    %rcx
  40248e:	49 89 c8             	mov    %rcx,%r8
  402491:	48 89 f1             	mov    %rsi,%rcx
  402494:	4c 89 f7             	mov    %r14,%rdi
  402497:	f2 ae                	repnz scas %es:(%rdi),%al
  402499:	48 f7 d1             	not    %rcx
  40249c:	4d 8d 44 08 fe       	lea    -0x2(%r8,%rcx,1),%r8
  4024a1:	48 89 f1             	mov    %rsi,%rcx
  4024a4:	48 8b 7c 24 08       	mov    0x8(%rsp),%rdi
  4024a9:	f2 ae                	repnz scas %es:(%rdi),%al
  4024ab:	48 89 c8             	mov    %rcx,%rax
  4024ae:	48 f7 d0             	not    %rax
  4024b1:	49 8d 4c 00 ff       	lea    -0x1(%r8,%rax,1),%rcx
  4024b6:	48 8d 44 52 fd       	lea    -0x3(%rdx,%rdx,2),%rax
  4024bb:	48 8d 84 01 80 00 00 	lea    0x80(%rcx,%rax,1),%rax
  4024c2:	00 
  4024c3:	48 3d 00 20 00 00    	cmp    $0x2000,%rax
  4024c9:	0f 87 d0 02 00 00    	ja     40279f <submitr+0x40e>
  4024cf:	48 8d b4 24 40 40 00 	lea    0x4040(%rsp),%rsi
  4024d6:	00 
  4024d7:	b9 00 04 00 00       	mov    $0x400,%ecx
  4024dc:	b8 00 00 00 00       	mov    $0x0,%eax
  4024e1:	48 89 f7             	mov    %rsi,%rdi
  4024e4:	f3 48 ab             	rep stos %rax,%es:(%rdi)
  4024e7:	4c 89 ef             	mov    %r13,%rdi
  4024ea:	e8 91 fd ff ff       	callq  402280 <urlencode>
  4024ef:	85 c0                	test   %eax,%eax
  4024f1:	0f 88 1b 03 00 00    	js     402812 <submitr+0x481>
  4024f7:	4c 8d ac 24 40 20 00 	lea    0x2040(%rsp),%r13
  4024fe:	00 
  4024ff:	41 54                	push   %r12
  402501:	48 8d 84 24 48 40 00 	lea    0x4048(%rsp),%rax
  402508:	00 
  402509:	50                   	push   %rax
  40250a:	4d 89 f9             	mov    %r15,%r9
  40250d:	4d 89 f0             	mov    %r14,%r8
  402510:	b9 d8 35 40 00       	mov    $0x4035d8,%ecx
  402515:	ba 00 20 00 00       	mov    $0x2000,%edx
  40251a:	be 01 00 00 00       	mov    $0x1,%esi
  40251f:	4c 89 ef             	mov    %r13,%rdi
  402522:	b8 00 00 00 00       	mov    $0x0,%eax
  402527:	e8 34 e9 ff ff       	callq  400e60 <__sprintf_chk@plt>
  40252c:	48 c7 c1 ff ff ff ff 	mov    $0xffffffffffffffff,%rcx
  402533:	b8 00 00 00 00       	mov    $0x0,%eax
  402538:	4c 89 ef             	mov    %r13,%rdi
  40253b:	f2 ae                	repnz scas %es:(%rdi),%al
  40253d:	48 89 ca             	mov    %rcx,%rdx
  402540:	48 f7 d2             	not    %rdx
  402543:	48 8d 52 ff          	lea    -0x1(%rdx),%rdx
  402547:	4c 89 ee             	mov    %r13,%rsi
  40254a:	89 df                	mov    %ebx,%edi
  40254c:	e8 a2 fb ff ff       	callq  4020f3 <rio_writen>
  402551:	48 83 c4 10          	add    $0x10,%rsp
  402555:	48 85 c0             	test   %rax,%rax
  402558:	0f 88 3f 03 00 00    	js     40289d <submitr+0x50c>
  40255e:	89 de                	mov    %ebx,%esi
  402560:	48 8d 7c 24 30       	lea    0x30(%rsp),%rdi
  402565:	e8 49 fb ff ff       	callq  4020b3 <rio_readinitb>
  40256a:	ba 00 20 00 00       	mov    $0x2000,%edx
  40256f:	48 8d b4 24 40 20 00 	lea    0x2040(%rsp),%rsi
  402576:	00 
  402577:	48 8d 7c 24 30       	lea    0x30(%rsp),%rdi
  40257c:	e8 5b fc ff ff       	callq  4021dc <rio_readlineb>
  402581:	48 85 c0             	test   %rax,%rax
  402584:	0f 8e 82 03 00 00    	jle    40290c <submitr+0x57b>
  40258a:	4c 8d 84 24 40 80 00 	lea    0x8040(%rsp),%r8
  402591:	00 
  402592:	48 8d 4c 24 1c       	lea    0x1c(%rsp),%rcx
  402597:	48 8d 94 24 40 60 00 	lea    0x6040(%rsp),%rdx
  40259e:	00 
  40259f:	be 4f 36 40 00       	mov    $0x40364f,%esi
  4025a4:	48 8d bc 24 40 20 00 	lea    0x2040(%rsp),%rdi
  4025ab:	00 
  4025ac:	b8 00 00 00 00       	mov    $0x0,%eax
  4025b1:	e8 0a e8 ff ff       	callq  400dc0 <__isoc99_sscanf@plt>
  4025b6:	48 8d b4 24 40 20 00 	lea    0x2040(%rsp),%rsi
  4025bd:	00 
  4025be:	bf 66 36 40 00       	mov    $0x403666,%edi
  4025c3:	b9 03 00 00 00       	mov    $0x3,%ecx
  4025c8:	f3 a6                	repz cmpsb %es:(%rdi),%ds:(%rsi)
  4025ca:	0f 97 c0             	seta   %al
  4025cd:	1c 00                	sbb    $0x0,%al
  4025cf:	84 c0                	test   %al,%al
  4025d1:	0f 84 b3 03 00 00    	je     40298a <submitr+0x5f9>
  4025d7:	ba 00 20 00 00       	mov    $0x2000,%edx
  4025dc:	48 8d b4 24 40 20 00 	lea    0x2040(%rsp),%rsi
  4025e3:	00 
  4025e4:	48 8d 7c 24 30       	lea    0x30(%rsp),%rdi
  4025e9:	e8 ee fb ff ff       	callq  4021dc <rio_readlineb>
  4025ee:	48 85 c0             	test   %rax,%rax
  4025f1:	7f c3                	jg     4025b6 <submitr+0x225>
  4025f3:	48 b8 45 72 72 6f 72 	movabs $0x43203a726f727245,%rax
  4025fa:	3a 20 43 
  4025fd:	48 ba 6c 69 65 6e 74 	movabs $0x6e7520746e65696c,%rdx
  402604:	20 75 6e 
  402607:	48 89 45 00          	mov    %rax,0x0(%rbp)
  40260b:	48 89 55 08          	mov    %rdx,0x8(%rbp)
  40260f:	48 b8 61 62 6c 65 20 	movabs $0x206f7420656c6261,%rax
  402616:	74 6f 20 
  402619:	48 ba 72 65 61 64 20 	movabs $0x6165682064616572,%rdx
  402620:	68 65 61 
  402623:	48 89 45 10          	mov    %rax,0x10(%rbp)
  402627:	48 89 55 18          	mov    %rdx,0x18(%rbp)
  40262b:	48 b8 64 65 72 73 20 	movabs $0x6f72662073726564,%rax
  402632:	66 72 6f 
  402635:	48 ba 6d 20 74 68 65 	movabs $0x657220656874206d,%rdx
  40263c:	20 72 65 
  40263f:	48 89 45 20          	mov    %rax,0x20(%rbp)
  402643:	48 89 55 28          	mov    %rdx,0x28(%rbp)
  402647:	48 b8 73 75 6c 74 20 	movabs $0x72657320746c7573,%rax
  40264e:	73 65 72 
  402651:	48 89 45 30          	mov    %rax,0x30(%rbp)
  402655:	c7 45 38 76 65 72 00 	movl   $0x726576,0x38(%rbp)
  40265c:	89 df                	mov    %ebx,%edi
  40265e:	e8 bd e6 ff ff       	callq  400d20 <close@plt>
  402663:	b8 ff ff ff ff       	mov    $0xffffffff,%eax
  402668:	48 8b 9c 24 48 a0 00 	mov    0xa048(%rsp),%rbx
  40266f:	00 
  402670:	64 48 33 1c 25 28 00 	xor    %fs:0x28,%rbx
  402677:	00 00 
  402679:	0f 85 76 04 00 00    	jne    402af5 <submitr+0x764>
  40267f:	48 81 c4 58 a0 00 00 	add    $0xa058,%rsp
  402686:	5b                   	pop    %rbx
  402687:	5d                   	pop    %rbp
  402688:	41 5c                	pop    %r12
  40268a:	41 5d                	pop    %r13
  40268c:	41 5e                	pop    %r14
  40268e:	41 5f                	pop    %r15
  402690:	c3                   	retq   
  402691:	48 b8 45 72 72 6f 72 	movabs $0x43203a726f727245,%rax
  402698:	3a 20 43 
  40269b:	48 ba 6c 69 65 6e 74 	movabs $0x6e7520746e65696c,%rdx
  4026a2:	20 75 6e 
  4026a5:	48 89 45 00          	mov    %rax,0x0(%rbp)
  4026a9:	48 89 55 08          	mov    %rdx,0x8(%rbp)
  4026ad:	48 b8 61 62 6c 65 20 	movabs $0x206f7420656c6261,%rax
  4026b4:	74 6f 20 
  4026b7:	48 ba 63 72 65 61 74 	movabs $0x7320657461657263,%rdx
  4026be:	65 20 73 
  4026c1:	48 89 45 10          	mov    %rax,0x10(%rbp)
  4026c5:	48 89 55 18          	mov    %rdx,0x18(%rbp)
  4026c9:	c7 45 20 6f 63 6b 65 	movl   $0x656b636f,0x20(%rbp)
  4026d0:	66 c7 45 24 74 00    	movw   $0x74,0x24(%rbp)
  4026d6:	b8 ff ff ff ff       	mov    $0xffffffff,%eax
  4026db:	eb 8b                	jmp    402668 <submitr+0x2d7>
  4026dd:	48 b8 45 72 72 6f 72 	movabs $0x44203a726f727245,%rax
  4026e4:	3a 20 44 
  4026e7:	48 ba 4e 53 20 69 73 	movabs $0x6e7520736920534e,%rdx
  4026ee:	20 75 6e 
  4026f1:	48 89 45 00          	mov    %rax,0x0(%rbp)
  4026f5:	48 89 55 08          	mov    %rdx,0x8(%rbp)
  4026f9:	48 b8 61 62 6c 65 20 	movabs $0x206f7420656c6261,%rax
  402700:	74 6f 20 
  402703:	48 ba 72 65 73 6f 6c 	movabs $0x2065766c6f736572,%rdx
  40270a:	76 65 20 
  40270d:	48 89 45 10          	mov    %rax,0x10(%rbp)
  402711:	48 89 55 18          	mov    %rdx,0x18(%rbp)
  402715:	48 b8 73 65 72 76 65 	movabs $0x6120726576726573,%rax
  40271c:	72 20 61 
  40271f:	48 89 45 20          	mov    %rax,0x20(%rbp)
  402723:	c7 45 28 64 64 72 65 	movl   $0x65726464,0x28(%rbp)
  40272a:	66 c7 45 2c 73 73    	movw   $0x7373,0x2c(%rbp)
  402730:	c6 45 2e 00          	movb   $0x0,0x2e(%rbp)
  402734:	89 df                	mov    %ebx,%edi
  402736:	e8 e5 e5 ff ff       	callq  400d20 <close@plt>
  40273b:	b8 ff ff ff ff       	mov    $0xffffffff,%eax
  402740:	e9 23 ff ff ff       	jmpq   402668 <submitr+0x2d7>
  402745:	48 b8 45 72 72 6f 72 	movabs $0x55203a726f727245,%rax
  40274c:	3a 20 55 
  40274f:	48 ba 6e 61 62 6c 65 	movabs $0x6f7420656c62616e,%rdx
  402756:	20 74 6f 
  402759:	48 89 45 00          	mov    %rax,0x0(%rbp)
  40275d:	48 89 55 08          	mov    %rdx,0x8(%rbp)
  402761:	48 b8 20 63 6f 6e 6e 	movabs $0x7463656e6e6f6320,%rax
  402768:	65 63 74 
  40276b:	48 ba 20 74 6f 20 74 	movabs $0x20656874206f7420,%rdx
  402772:	68 65 20 
  402775:	48 89 45 10          	mov    %rax,0x10(%rbp)
  402779:	48 89 55 18          	mov    %rdx,0x18(%rbp)
  40277d:	c7 45 20 73 65 72 76 	movl   $0x76726573,0x20(%rbp)
  402784:	66 c7 45 24 65 72    	movw   $0x7265,0x24(%rbp)
  40278a:	c6 45 26 00          	movb   $0x0,0x26(%rbp)
  40278e:	89 df                	mov    %ebx,%edi
  402790:	e8 8b e5 ff ff       	callq  400d20 <close@plt>
  402795:	b8 ff ff ff ff       	mov    $0xffffffff,%eax
  40279a:	e9 c9 fe ff ff       	jmpq   402668 <submitr+0x2d7>
  40279f:	48 b8 45 72 72 6f 72 	movabs $0x52203a726f727245,%rax
  4027a6:	3a 20 52 
  4027a9:	48 ba 65 73 75 6c 74 	movabs $0x747320746c757365,%rdx
  4027b0:	20 73 74 
  4027b3:	48 89 45 00          	mov    %rax,0x0(%rbp)
  4027b7:	48 89 55 08          	mov    %rdx,0x8(%rbp)
  4027bb:	48 b8 72 69 6e 67 20 	movabs $0x6f6f7420676e6972,%rax
  4027c2:	74 6f 6f 
  4027c5:	48 ba 20 6c 61 72 67 	movabs $0x202e656772616c20,%rdx
  4027cc:	65 2e 20 
  4027cf:	48 89 45 10          	mov    %rax,0x10(%rbp)
  4027d3:	48 89 55 18          	mov    %rdx,0x18(%rbp)
  4027d7:	48 b8 49 6e 63 72 65 	movabs $0x6573616572636e49,%rax
  4027de:	61 73 65 
  4027e1:	48 ba 20 53 55 42 4d 	movabs $0x5254494d42555320,%rdx
  4027e8:	49 54 52 
  4027eb:	48 89 45 20          	mov    %rax,0x20(%rbp)
  4027ef:	48 89 55 28          	mov    %rdx,0x28(%rbp)
  4027f3:	48 b8 5f 4d 41 58 42 	movabs $0x46554258414d5f,%rax
  4027fa:	55 46 00 
  4027fd:	48 89 45 30          	mov    %rax,0x30(%rbp)
  402801:	89 df                	mov    %ebx,%edi
  402803:	e8 18 e5 ff ff       	callq  400d20 <close@plt>
  402808:	b8 ff ff ff ff       	mov    $0xffffffff,%eax
  40280d:	e9 56 fe ff ff       	jmpq   402668 <submitr+0x2d7>
  402812:	48 b8 45 72 72 6f 72 	movabs $0x52203a726f727245,%rax
  402819:	3a 20 52 
  40281c:	48 ba 65 73 75 6c 74 	movabs $0x747320746c757365,%rdx
  402823:	20 73 74 
  402826:	48 89 45 00          	mov    %rax,0x0(%rbp)
  40282a:	48 89 55 08          	mov    %rdx,0x8(%rbp)
  40282e:	48 b8 72 69 6e 67 20 	movabs $0x6e6f6320676e6972,%rax
  402835:	63 6f 6e 
  402838:	48 ba 74 61 69 6e 73 	movabs $0x6e6120736e696174,%rdx
  40283f:	20 61 6e 
  402842:	48 89 45 10          	mov    %rax,0x10(%rbp)
  402846:	48 89 55 18          	mov    %rdx,0x18(%rbp)
  40284a:	48 b8 20 69 6c 6c 65 	movabs $0x6c6167656c6c6920,%rax
  402851:	67 61 6c 
  402854:	48 ba 20 6f 72 20 75 	movabs $0x72706e7520726f20,%rdx
  40285b:	6e 70 72 
  40285e:	48 89 45 20          	mov    %rax,0x20(%rbp)
  402862:	48 89 55 28          	mov    %rdx,0x28(%rbp)
  402866:	48 b8 69 6e 74 61 62 	movabs $0x20656c6261746e69,%rax
  40286d:	6c 65 20 
  402870:	48 ba 63 68 61 72 61 	movabs $0x6574636172616863,%rdx
  402877:	63 74 65 
  40287a:	48 89 45 30          	mov    %rax,0x30(%rbp)
  40287e:	48 89 55 38          	mov    %rdx,0x38(%rbp)
  402882:	66 c7 45 40 72 2e    	movw   $0x2e72,0x40(%rbp)
  402888:	c6 45 42 00          	movb   $0x0,0x42(%rbp)
  40288c:	89 df                	mov    %ebx,%edi
  40288e:	e8 8d e4 ff ff       	callq  400d20 <close@plt>
  402893:	b8 ff ff ff ff       	mov    $0xffffffff,%eax
  402898:	e9 cb fd ff ff       	jmpq   402668 <submitr+0x2d7>
  40289d:	48 b8 45 72 72 6f 72 	movabs $0x43203a726f727245,%rax
  4028a4:	3a 20 43 
  4028a7:	48 ba 6c 69 65 6e 74 	movabs $0x6e7520746e65696c,%rdx
  4028ae:	20 75 6e 
  4028b1:	48 89 45 00          	mov    %rax,0x0(%rbp)
  4028b5:	48 89 55 08          	mov    %rdx,0x8(%rbp)
  4028b9:	48 b8 61 62 6c 65 20 	movabs $0x206f7420656c6261,%rax
  4028c0:	74 6f 20 
  4028c3:	48 ba 77 72 69 74 65 	movabs $0x6f74206574697277,%rdx
  4028ca:	20 74 6f 
  4028cd:	48 89 45 10          	mov    %rax,0x10(%rbp)
  4028d1:	48 89 55 18          	mov    %rdx,0x18(%rbp)
  4028d5:	48 b8 20 74 68 65 20 	movabs $0x7365722065687420,%rax
  4028dc:	72 65 73 
  4028df:	48 ba 75 6c 74 20 73 	movabs $0x7672657320746c75,%rdx
  4028e6:	65 72 76 
  4028e9:	48 89 45 20          	mov    %rax,0x20(%rbp)
  4028ed:	48 89 55 28          	mov    %rdx,0x28(%rbp)
  4028f1:	66 c7 45 30 65 72    	movw   $0x7265,0x30(%rbp)
  4028f7:	c6 45 32 00          	movb   $0x0,0x32(%rbp)
  4028fb:	89 df                	mov    %ebx,%edi
  4028fd:	e8 1e e4 ff ff       	callq  400d20 <close@plt>
  402902:	b8 ff ff ff ff       	mov    $0xffffffff,%eax
  402907:	e9 5c fd ff ff       	jmpq   402668 <submitr+0x2d7>
  40290c:	48 b8 45 72 72 6f 72 	movabs $0x43203a726f727245,%rax
  402913:	3a 20 43 
  402916:	48 ba 6c 69 65 6e 74 	movabs $0x6e7520746e65696c,%rdx
  40291d:	20 75 6e 
  402920:	48 89 45 00          	mov    %rax,0x0(%rbp)
  402924:	48 89 55 08          	mov    %rdx,0x8(%rbp)
  402928:	48 b8 61 62 6c 65 20 	movabs $0x206f7420656c6261,%rax
  40292f:	74 6f 20 
  402932:	48 ba 72 65 61 64 20 	movabs $0x7269662064616572,%rdx
  402939:	66 69 72 
  40293c:	48 89 45 10          	mov    %rax,0x10(%rbp)
  402940:	48 89 55 18          	mov    %rdx,0x18(%rbp)
  402944:	48 b8 73 74 20 68 65 	movabs $0x6564616568207473,%rax
  40294b:	61 64 65 
  40294e:	48 ba 72 20 66 72 6f 	movabs $0x72206d6f72662072,%rdx
  402955:	6d 20 72 
  402958:	48 89 45 20          	mov    %rax,0x20(%rbp)
  40295c:	48 89 55 28          	mov    %rdx,0x28(%rbp)
  402960:	48 b8 65 73 75 6c 74 	movabs $0x657320746c757365,%rax
  402967:	20 73 65 
  40296a:	48 89 45 30          	mov    %rax,0x30(%rbp)
  40296e:	c7 45 38 72 76 65 72 	movl   $0x72657672,0x38(%rbp)
  402975:	c6 45 3c 00          	movb   $0x0,0x3c(%rbp)
  402979:	89 df                	mov    %ebx,%edi
  40297b:	e8 a0 e3 ff ff       	callq  400d20 <close@plt>
  402980:	b8 ff ff ff ff       	mov    $0xffffffff,%eax
  402985:	e9 de fc ff ff       	jmpq   402668 <submitr+0x2d7>
  40298a:	ba 00 20 00 00       	mov    $0x2000,%edx
  40298f:	48 8d b4 24 40 20 00 	lea    0x2040(%rsp),%rsi
  402996:	00 
  402997:	48 8d 7c 24 30       	lea    0x30(%rsp),%rdi
  40299c:	e8 3b f8 ff ff       	callq  4021dc <rio_readlineb>
  4029a1:	48 85 c0             	test   %rax,%rax
  4029a4:	0f 8e 90 00 00 00    	jle    402a3a <submitr+0x6a9>
  4029aa:	44 8b 44 24 1c       	mov    0x1c(%rsp),%r8d
  4029af:	41 81 f8 c8 00 00 00 	cmp    $0xc8,%r8d
  4029b6:	0f 85 02 01 00 00    	jne    402abe <submitr+0x72d>
  4029bc:	48 8d b4 24 40 20 00 	lea    0x2040(%rsp),%rsi
  4029c3:	00 
  4029c4:	48 89 ef             	mov    %rbp,%rdi
  4029c7:	e8 e4 e2 ff ff       	callq  400cb0 <strcpy@plt>
  4029cc:	89 df                	mov    %ebx,%edi
  4029ce:	e8 4d e3 ff ff       	callq  400d20 <close@plt>
  4029d3:	bf 60 36 40 00       	mov    $0x403660,%edi
  4029d8:	b9 04 00 00 00       	mov    $0x4,%ecx
  4029dd:	48 89 ee             	mov    %rbp,%rsi
  4029e0:	f3 a6                	repz cmpsb %es:(%rdi),%ds:(%rsi)
  4029e2:	0f 97 c0             	seta   %al
  4029e5:	1c 00                	sbb    $0x0,%al
  4029e7:	0f be c0             	movsbl %al,%eax
  4029ea:	85 c0                	test   %eax,%eax
  4029ec:	0f 84 76 fc ff ff    	je     402668 <submitr+0x2d7>
  4029f2:	bf 64 36 40 00       	mov    $0x403664,%edi
  4029f7:	b9 05 00 00 00       	mov    $0x5,%ecx
  4029fc:	48 89 ee             	mov    %rbp,%rsi
  4029ff:	f3 a6                	repz cmpsb %es:(%rdi),%ds:(%rsi)
  402a01:	0f 97 c0             	seta   %al
  402a04:	1c 00                	sbb    $0x0,%al
  402a06:	0f be c0             	movsbl %al,%eax
  402a09:	85 c0                	test   %eax,%eax
  402a0b:	0f 84 57 fc ff ff    	je     402668 <submitr+0x2d7>
  402a11:	bf 69 36 40 00       	mov    $0x403669,%edi
  402a16:	b9 03 00 00 00       	mov    $0x3,%ecx
  402a1b:	48 89 ee             	mov    %rbp,%rsi
  402a1e:	f3 a6                	repz cmpsb %es:(%rdi),%ds:(%rsi)
  402a20:	0f 97 c0             	seta   %al
  402a23:	1c 00                	sbb    $0x0,%al
  402a25:	0f be c0             	movsbl %al,%eax
  402a28:	85 c0                	test   %eax,%eax
  402a2a:	0f 84 38 fc ff ff    	je     402668 <submitr+0x2d7>
  402a30:	b8 ff ff ff ff       	mov    $0xffffffff,%eax
  402a35:	e9 2e fc ff ff       	jmpq   402668 <submitr+0x2d7>
  402a3a:	48 b8 45 72 72 6f 72 	movabs $0x43203a726f727245,%rax
  402a41:	3a 20 43 
  402a44:	48 ba 6c 69 65 6e 74 	movabs $0x6e7520746e65696c,%rdx
  402a4b:	20 75 6e 
  402a4e:	48 89 45 00          	mov    %rax,0x0(%rbp)
  402a52:	48 89 55 08          	mov    %rdx,0x8(%rbp)
  402a56:	48 b8 61 62 6c 65 20 	movabs $0x206f7420656c6261,%rax
  402a5d:	74 6f 20 
  402a60:	48 ba 72 65 61 64 20 	movabs $0x6174732064616572,%rdx
  402a67:	73 74 61 
  402a6a:	48 89 45 10          	mov    %rax,0x10(%rbp)
  402a6e:	48 89 55 18          	mov    %rdx,0x18(%rbp)
  402a72:	48 b8 74 75 73 20 6d 	movabs $0x7373656d20737574,%rax
  402a79:	65 73 73 
  402a7c:	48 ba 61 67 65 20 66 	movabs $0x6d6f726620656761,%rdx
  402a83:	72 6f 6d 
  402a86:	48 89 45 20          	mov    %rax,0x20(%rbp)
  402a8a:	48 89 55 28          	mov    %rdx,0x28(%rbp)
  402a8e:	48 b8 20 72 65 73 75 	movabs $0x20746c7573657220,%rax
  402a95:	6c 74 20 
  402a98:	48 89 45 30          	mov    %rax,0x30(%rbp)
  402a9c:	c7 45 38 73 65 72 76 	movl   $0x76726573,0x38(%rbp)
  402aa3:	66 c7 45 3c 65 72    	movw   $0x7265,0x3c(%rbp)
  402aa9:	c6 45 3e 00          	movb   $0x0,0x3e(%rbp)
  402aad:	89 df                	mov    %ebx,%edi
  402aaf:	e8 6c e2 ff ff       	callq  400d20 <close@plt>
  402ab4:	b8 ff ff ff ff       	mov    $0xffffffff,%eax
  402ab9:	e9 aa fb ff ff       	jmpq   402668 <submitr+0x2d7>
  402abe:	4c 8d 8c 24 40 80 00 	lea    0x8040(%rsp),%r9
  402ac5:	00 
  402ac6:	b9 18 36 40 00       	mov    $0x403618,%ecx
  402acb:	48 c7 c2 ff ff ff ff 	mov    $0xffffffffffffffff,%rdx
  402ad2:	be 01 00 00 00       	mov    $0x1,%esi
  402ad7:	48 89 ef             	mov    %rbp,%rdi
  402ada:	b8 00 00 00 00       	mov    $0x0,%eax
  402adf:	e8 7c e3 ff ff       	callq  400e60 <__sprintf_chk@plt>
  402ae4:	89 df                	mov    %ebx,%edi
  402ae6:	e8 35 e2 ff ff       	callq  400d20 <close@plt>
  402aeb:	b8 ff ff ff ff       	mov    $0xffffffff,%eax
  402af0:	e9 73 fb ff ff       	jmpq   402668 <submitr+0x2d7>
  402af5:	e8 e6 e1 ff ff       	callq  400ce0 <__stack_chk_fail@plt>

0000000000402afa <init_timeout>:
  402afa:	85 ff                	test   %edi,%edi
  402afc:	74 26                	je     402b24 <init_timeout+0x2a>
  402afe:	53                   	push   %rbx
  402aff:	89 fb                	mov    %edi,%ebx
  402b01:	85 ff                	test   %edi,%edi
  402b03:	78 18                	js     402b1d <init_timeout+0x23>
  402b05:	be c5 20 40 00       	mov    $0x4020c5,%esi
  402b0a:	bf 0e 00 00 00       	mov    $0xe,%edi
  402b0f:	e8 2c e2 ff ff       	callq  400d40 <signal@plt>
  402b14:	89 df                	mov    %ebx,%edi
  402b16:	e8 f5 e1 ff ff       	callq  400d10 <alarm@plt>
  402b1b:	5b                   	pop    %rbx
  402b1c:	c3                   	retq   
  402b1d:	bb 00 00 00 00       	mov    $0x0,%ebx
  402b22:	eb e1                	jmp    402b05 <init_timeout+0xb>
  402b24:	f3 c3                	repz retq 

0000000000402b26 <init_driver>:
  402b26:	55                   	push   %rbp
  402b27:	53                   	push   %rbx
  402b28:	48 83 ec 28          	sub    $0x28,%rsp
  402b2c:	48 89 fd             	mov    %rdi,%rbp
  402b2f:	64 48 8b 04 25 28 00 	mov    %fs:0x28,%rax
  402b36:	00 00 
  402b38:	48 89 44 24 18       	mov    %rax,0x18(%rsp)
  402b3d:	31 c0                	xor    %eax,%eax
  402b3f:	be 01 00 00 00       	mov    $0x1,%esi
  402b44:	bf 0d 00 00 00       	mov    $0xd,%edi
  402b49:	e8 f2 e1 ff ff       	callq  400d40 <signal@plt>
  402b4e:	be 01 00 00 00       	mov    $0x1,%esi
  402b53:	bf 1d 00 00 00       	mov    $0x1d,%edi
  402b58:	e8 e3 e1 ff ff       	callq  400d40 <signal@plt>
  402b5d:	be 01 00 00 00       	mov    $0x1,%esi
  402b62:	bf 1d 00 00 00       	mov    $0x1d,%edi
  402b67:	e8 d4 e1 ff ff       	callq  400d40 <signal@plt>
  402b6c:	ba 00 00 00 00       	mov    $0x0,%edx
  402b71:	be 01 00 00 00       	mov    $0x1,%esi
  402b76:	bf 02 00 00 00       	mov    $0x2,%edi
  402b7b:	e8 f0 e2 ff ff       	callq  400e70 <socket@plt>
  402b80:	85 c0                	test   %eax,%eax
  402b82:	0f 88 9c 00 00 00    	js     402c24 <init_driver+0xfe>
  402b88:	89 c3                	mov    %eax,%ebx
  402b8a:	bf 6c 36 40 00       	mov    $0x40366c,%edi
  402b8f:	e8 bc e1 ff ff       	callq  400d50 <gethostbyname@plt>
  402b94:	48 85 c0             	test   %rax,%rax
  402b97:	0f 84 d3 00 00 00    	je     402c70 <init_driver+0x14a>
  402b9d:	48 c7 44 24 02 00 00 	movq   $0x0,0x2(%rsp)
  402ba4:	00 00 
  402ba6:	c7 44 24 0a 00 00 00 	movl   $0x0,0xa(%rsp)
  402bad:	00 
  402bae:	66 c7 44 24 0e 00 00 	movw   $0x0,0xe(%rsp)
  402bb5:	66 c7 04 24 02 00    	movw   $0x2,(%rsp)
  402bbb:	48 63 50 14          	movslq 0x14(%rax),%rdx
  402bbf:	48 8b 40 18          	mov    0x18(%rax),%rax
  402bc3:	48 8b 30             	mov    (%rax),%rsi
  402bc6:	48 8d 7c 24 04       	lea    0x4(%rsp),%rdi
  402bcb:	b9 0c 00 00 00       	mov    $0xc,%ecx
  402bd0:	e8 8b e1 ff ff       	callq  400d60 <__memmove_chk@plt>
  402bd5:	66 c7 44 24 02 3c 9a 	movw   $0x9a3c,0x2(%rsp)
  402bdc:	ba 10 00 00 00       	mov    $0x10,%edx
  402be1:	48 89 e6             	mov    %rsp,%rsi
  402be4:	89 df                	mov    %ebx,%edi
  402be6:	e8 55 e2 ff ff       	callq  400e40 <connect@plt>
  402beb:	85 c0                	test   %eax,%eax
  402bed:	0f 88 e5 00 00 00    	js     402cd8 <init_driver+0x1b2>
  402bf3:	89 df                	mov    %ebx,%edi
  402bf5:	e8 26 e1 ff ff       	callq  400d20 <close@plt>
  402bfa:	66 c7 45 00 4f 4b    	movw   $0x4b4f,0x0(%rbp)
  402c00:	c6 45 02 00          	movb   $0x0,0x2(%rbp)
  402c04:	b8 00 00 00 00       	mov    $0x0,%eax
  402c09:	48 8b 4c 24 18       	mov    0x18(%rsp),%rcx
  402c0e:	64 48 33 0c 25 28 00 	xor    %fs:0x28,%rcx
  402c15:	00 00 
  402c17:	0f 85 0e 01 00 00    	jne    402d2b <init_driver+0x205>
  402c1d:	48 83 c4 28          	add    $0x28,%rsp
  402c21:	5b                   	pop    %rbx
  402c22:	5d                   	pop    %rbp
  402c23:	c3                   	retq   
  402c24:	48 b8 45 72 72 6f 72 	movabs $0x43203a726f727245,%rax
  402c2b:	3a 20 43 
  402c2e:	48 ba 6c 69 65 6e 74 	movabs $0x6e7520746e65696c,%rdx
  402c35:	20 75 6e 
  402c38:	48 89 45 00          	mov    %rax,0x0(%rbp)
  402c3c:	48 89 55 08          	mov    %rdx,0x8(%rbp)
  402c40:	48 b8 61 62 6c 65 20 	movabs $0x206f7420656c6261,%rax
  402c47:	74 6f 20 
  402c4a:	48 ba 63 72 65 61 74 	movabs $0x7320657461657263,%rdx
  402c51:	65 20 73 
  402c54:	48 89 45 10          	mov    %rax,0x10(%rbp)
  402c58:	48 89 55 18          	mov    %rdx,0x18(%rbp)
  402c5c:	c7 45 20 6f 63 6b 65 	movl   $0x656b636f,0x20(%rbp)
  402c63:	66 c7 45 24 74 00    	movw   $0x74,0x24(%rbp)
  402c69:	b8 ff ff ff ff       	mov    $0xffffffff,%eax
  402c6e:	eb 99                	jmp    402c09 <init_driver+0xe3>
  402c70:	48 b8 45 72 72 6f 72 	movabs $0x44203a726f727245,%rax
  402c77:	3a 20 44 
  402c7a:	48 ba 4e 53 20 69 73 	movabs $0x6e7520736920534e,%rdx
  402c81:	20 75 6e 
  402c84:	48 89 45 00          	mov    %rax,0x0(%rbp)
  402c88:	48 89 55 08          	mov    %rdx,0x8(%rbp)
  402c8c:	48 b8 61 62 6c 65 20 	movabs $0x206f7420656c6261,%rax
  402c93:	74 6f 20 
  402c96:	48 ba 72 65 73 6f 6c 	movabs $0x2065766c6f736572,%rdx
  402c9d:	76 65 20 
  402ca0:	48 89 45 10          	mov    %rax,0x10(%rbp)
  402ca4:	48 89 55 18          	mov    %rdx,0x18(%rbp)
  402ca8:	48 b8 73 65 72 76 65 	movabs $0x6120726576726573,%rax
  402caf:	72 20 61 
  402cb2:	48 89 45 20          	mov    %rax,0x20(%rbp)
  402cb6:	c7 45 28 64 64 72 65 	movl   $0x65726464,0x28(%rbp)
  402cbd:	66 c7 45 2c 73 73    	movw   $0x7373,0x2c(%rbp)
  402cc3:	c6 45 2e 00          	movb   $0x0,0x2e(%rbp)
  402cc7:	89 df                	mov    %ebx,%edi
  402cc9:	e8 52 e0 ff ff       	callq  400d20 <close@plt>
  402cce:	b8 ff ff ff ff       	mov    $0xffffffff,%eax
  402cd3:	e9 31 ff ff ff       	jmpq   402c09 <init_driver+0xe3>
  402cd8:	48 b8 45 72 72 6f 72 	movabs $0x55203a726f727245,%rax
  402cdf:	3a 20 55 
  402ce2:	48 ba 6e 61 62 6c 65 	movabs $0x6f7420656c62616e,%rdx
  402ce9:	20 74 6f 
  402cec:	48 89 45 00          	mov    %rax,0x0(%rbp)
  402cf0:	48 89 55 08          	mov    %rdx,0x8(%rbp)
  402cf4:	48 b8 20 63 6f 6e 6e 	movabs $0x7463656e6e6f6320,%rax
  402cfb:	65 63 74 
  402cfe:	48 ba 20 74 6f 20 73 	movabs $0x76726573206f7420,%rdx
  402d05:	65 72 76 
  402d08:	48 89 45 10          	mov    %rax,0x10(%rbp)
  402d0c:	48 89 55 18          	mov    %rdx,0x18(%rbp)
  402d10:	66 c7 45 20 65 72    	movw   $0x7265,0x20(%rbp)
  402d16:	c6 45 22 00          	movb   $0x0,0x22(%rbp)
  402d1a:	89 df                	mov    %ebx,%edi
  402d1c:	e8 ff df ff ff       	callq  400d20 <close@plt>
  402d21:	b8 ff ff ff ff       	mov    $0xffffffff,%eax
  402d26:	e9 de fe ff ff       	jmpq   402c09 <init_driver+0xe3>
  402d2b:	e8 b0 df ff ff       	callq  400ce0 <__stack_chk_fail@plt>

0000000000402d30 <driver_post>:
  402d30:	53                   	push   %rbx
  402d31:	4c 89 cb             	mov    %r9,%rbx
  402d34:	45 85 c0             	test   %r8d,%r8d
  402d37:	75 18                	jne    402d51 <driver_post+0x21>
  402d39:	48 85 ff             	test   %rdi,%rdi
  402d3c:	74 05                	je     402d43 <driver_post+0x13>
  402d3e:	80 3f 00             	cmpb   $0x0,(%rdi)
  402d41:	75 35                	jne    402d78 <driver_post+0x48>
  402d43:	66 c7 03 4f 4b       	movw   $0x4b4f,(%rbx)
  402d48:	c6 43 02 00          	movb   $0x0,0x2(%rbx)
  402d4c:	44 89 c0             	mov    %r8d,%eax
  402d4f:	5b                   	pop    %rbx
  402d50:	c3                   	retq   
  402d51:	48 89 ca             	mov    %rcx,%rdx
  402d54:	be 84 36 40 00       	mov    $0x403684,%esi
  402d59:	bf 01 00 00 00       	mov    $0x1,%edi
  402d5e:	b8 00 00 00 00       	mov    $0x0,%eax
  402d63:	e8 78 e0 ff ff       	callq  400de0 <__printf_chk@plt>
  402d68:	66 c7 03 4f 4b       	movw   $0x4b4f,(%rbx)
  402d6d:	c6 43 02 00          	movb   $0x0,0x2(%rbx)
  402d71:	b8 00 00 00 00       	mov    $0x0,%eax
  402d76:	eb d7                	jmp    402d4f <driver_post+0x1f>
  402d78:	48 83 ec 08          	sub    $0x8,%rsp
  402d7c:	41 51                	push   %r9
  402d7e:	49 89 c9             	mov    %rcx,%r9
  402d81:	49 89 d0             	mov    %rdx,%r8
  402d84:	48 89 f9             	mov    %rdi,%rcx
  402d87:	48 89 f2             	mov    %rsi,%rdx
  402d8a:	be 9a 3c 00 00       	mov    $0x3c9a,%esi
  402d8f:	bf 6c 36 40 00       	mov    $0x40366c,%edi
  402d94:	e8 f8 f5 ff ff       	callq  402391 <submitr>
  402d99:	48 83 c4 10          	add    $0x10,%rsp
  402d9d:	eb b0                	jmp    402d4f <driver_post+0x1f>

0000000000402d9f <check>:
  402d9f:	89 f8                	mov    %edi,%eax
  402da1:	c1 e8 1c             	shr    $0x1c,%eax
  402da4:	85 c0                	test   %eax,%eax
  402da6:	74 1d                	je     402dc5 <check+0x26>
  402da8:	b9 00 00 00 00       	mov    $0x0,%ecx
  402dad:	83 f9 1f             	cmp    $0x1f,%ecx
  402db0:	7f 0d                	jg     402dbf <check+0x20>
  402db2:	89 f8                	mov    %edi,%eax
  402db4:	d3 e8                	shr    %cl,%eax
  402db6:	3c 0a                	cmp    $0xa,%al
  402db8:	74 11                	je     402dcb <check+0x2c>
  402dba:	83 c1 08             	add    $0x8,%ecx
  402dbd:	eb ee                	jmp    402dad <check+0xe>
  402dbf:	b8 01 00 00 00       	mov    $0x1,%eax
  402dc4:	c3                   	retq   
  402dc5:	b8 00 00 00 00       	mov    $0x0,%eax
  402dca:	c3                   	retq   
  402dcb:	b8 00 00 00 00       	mov    $0x0,%eax
  402dd0:	c3                   	retq   

0000000000402dd1 <gencookie>:
  402dd1:	53                   	push   %rbx
  402dd2:	83 c7 01             	add    $0x1,%edi
  402dd5:	e8 b6 de ff ff       	callq  400c90 <srandom@plt>
  402dda:	e8 c1 df ff ff       	callq  400da0 <random@plt>
  402ddf:	89 c3                	mov    %eax,%ebx
  402de1:	89 c7                	mov    %eax,%edi
  402de3:	e8 b7 ff ff ff       	callq  402d9f <check>
  402de8:	85 c0                	test   %eax,%eax
  402dea:	74 ee                	je     402dda <gencookie+0x9>
  402dec:	89 d8                	mov    %ebx,%eax
  402dee:	5b                   	pop    %rbx
  402def:	c3                   	retq   

0000000000402df0 <__libc_csu_init>:
  402df0:	41 57                	push   %r15
  402df2:	41 56                	push   %r14
  402df4:	49 89 d7             	mov    %rdx,%r15
  402df7:	41 55                	push   %r13
  402df9:	41 54                	push   %r12
  402dfb:	4c 8d 25 0e 10 20 00 	lea    0x20100e(%rip),%r12        # 603e10 <__frame_dummy_init_array_entry>
  402e02:	55                   	push   %rbp
  402e03:	48 8d 2d 0e 10 20 00 	lea    0x20100e(%rip),%rbp        # 603e18 <__init_array_end>
  402e0a:	53                   	push   %rbx
  402e0b:	41 89 fd             	mov    %edi,%r13d
  402e0e:	49 89 f6             	mov    %rsi,%r14
  402e11:	4c 29 e5             	sub    %r12,%rbp
  402e14:	48 83 ec 08          	sub    $0x8,%rsp
  402e18:	48 c1 fd 03          	sar    $0x3,%rbp
  402e1c:	e8 27 de ff ff       	callq  400c48 <_init>
  402e21:	48 85 ed             	test   %rbp,%rbp
  402e24:	74 20                	je     402e46 <__libc_csu_init+0x56>
  402e26:	31 db                	xor    %ebx,%ebx
  402e28:	0f 1f 84 00 00 00 00 	nopl   0x0(%rax,%rax,1)
  402e2f:	00 
  402e30:	4c 89 fa             	mov    %r15,%rdx
  402e33:	4c 89 f6             	mov    %r14,%rsi
  402e36:	44 89 ef             	mov    %r13d,%edi
  402e39:	41 ff 14 dc          	callq  *(%r12,%rbx,8)
  402e3d:	48 83 c3 01          	add    $0x1,%rbx
  402e41:	48 39 dd             	cmp    %rbx,%rbp
  402e44:	75 ea                	jne    402e30 <__libc_csu_init+0x40>
  402e46:	48 83 c4 08          	add    $0x8,%rsp
  402e4a:	5b                   	pop    %rbx
  402e4b:	5d                   	pop    %rbp
  402e4c:	41 5c                	pop    %r12
  402e4e:	41 5d                	pop    %r13
  402e50:	41 5e                	pop    %r14
  402e52:	41 5f                	pop    %r15
  402e54:	c3                   	retq   
  402e55:	90                   	nop
  402e56:	66 2e 0f 1f 84 00 00 	nopw   %cs:0x0(%rax,%rax,1)
  402e5d:	00 00 00 

0000000000402e60 <__libc_csu_fini>:
  402e60:	f3 c3                	repz retq 

Disassembly of section .fini:

0000000000402e64 <_fini>:
  402e64:	48 83 ec 08          	sub    $0x8,%rsp
  402e68:	48 83 c4 08          	add    $0x8,%rsp
  402e6c:	c3                   	retq   
