
rtarget:     file format elf64-x86-64


Disassembly of section .init:

0000000000400c48 <_init>:
  400c48:	48 83 ec 08          	sub    $0x8,%rsp
  400c4c:	48 8b 05 a5 43 20 00 	mov    0x2043a5(%rip),%rax        # 604ff8 <_DYNAMIC+0x1d8>
  400c53:	48 85 c0             	test   %rax,%rax
  400c56:	74 02                	je     400c5a <_init+0x12>
  400c58:	ff d0                	callq  *%rax
  400c5a:	48 83 c4 08          	add    $0x8,%rsp
  400c5e:	c3                   	retq   

Disassembly of section .plt:

0000000000400c60 <strcasecmp@plt-0x10>:
  400c60:	ff 35 a2 43 20 00    	pushq  0x2043a2(%rip)        # 605008 <_GLOBAL_OFFSET_TABLE_+0x8>
  400c66:	ff 25 a4 43 20 00    	jmpq   *0x2043a4(%rip)        # 605010 <_GLOBAL_OFFSET_TABLE_+0x10>
  400c6c:	0f 1f 40 00          	nopl   0x0(%rax)

0000000000400c70 <strcasecmp@plt>:
  400c70:	ff 25 a2 43 20 00    	jmpq   *0x2043a2(%rip)        # 605018 <_GLOBAL_OFFSET_TABLE_+0x18>
  400c76:	68 00 00 00 00       	pushq  $0x0
  400c7b:	e9 e0 ff ff ff       	jmpq   400c60 <_init+0x18>

0000000000400c80 <__errno_location@plt>:
  400c80:	ff 25 9a 43 20 00    	jmpq   *0x20439a(%rip)        # 605020 <_GLOBAL_OFFSET_TABLE_+0x20>
  400c86:	68 01 00 00 00       	pushq  $0x1
  400c8b:	e9 d0 ff ff ff       	jmpq   400c60 <_init+0x18>

0000000000400c90 <srandom@plt>:
  400c90:	ff 25 92 43 20 00    	jmpq   *0x204392(%rip)        # 605028 <_GLOBAL_OFFSET_TABLE_+0x28>
  400c96:	68 02 00 00 00       	pushq  $0x2
  400c9b:	e9 c0 ff ff ff       	jmpq   400c60 <_init+0x18>

0000000000400ca0 <strncmp@plt>:
  400ca0:	ff 25 8a 43 20 00    	jmpq   *0x20438a(%rip)        # 605030 <_GLOBAL_OFFSET_TABLE_+0x30>
  400ca6:	68 03 00 00 00       	pushq  $0x3
  400cab:	e9 b0 ff ff ff       	jmpq   400c60 <_init+0x18>

0000000000400cb0 <strcpy@plt>:
  400cb0:	ff 25 82 43 20 00    	jmpq   *0x204382(%rip)        # 605038 <_GLOBAL_OFFSET_TABLE_+0x38>
  400cb6:	68 04 00 00 00       	pushq  $0x4
  400cbb:	e9 a0 ff ff ff       	jmpq   400c60 <_init+0x18>

0000000000400cc0 <puts@plt>:
  400cc0:	ff 25 7a 43 20 00    	jmpq   *0x20437a(%rip)        # 605040 <_GLOBAL_OFFSET_TABLE_+0x40>
  400cc6:	68 05 00 00 00       	pushq  $0x5
  400ccb:	e9 90 ff ff ff       	jmpq   400c60 <_init+0x18>

0000000000400cd0 <write@plt>:
  400cd0:	ff 25 72 43 20 00    	jmpq   *0x204372(%rip)        # 605048 <_GLOBAL_OFFSET_TABLE_+0x48>
  400cd6:	68 06 00 00 00       	pushq  $0x6
  400cdb:	e9 80 ff ff ff       	jmpq   400c60 <_init+0x18>

0000000000400ce0 <__stack_chk_fail@plt>:
  400ce0:	ff 25 6a 43 20 00    	jmpq   *0x20436a(%rip)        # 605050 <_GLOBAL_OFFSET_TABLE_+0x50>
  400ce6:	68 07 00 00 00       	pushq  $0x7
  400ceb:	e9 70 ff ff ff       	jmpq   400c60 <_init+0x18>

0000000000400cf0 <mmap@plt>:
  400cf0:	ff 25 62 43 20 00    	jmpq   *0x204362(%rip)        # 605058 <_GLOBAL_OFFSET_TABLE_+0x58>
  400cf6:	68 08 00 00 00       	pushq  $0x8
  400cfb:	e9 60 ff ff ff       	jmpq   400c60 <_init+0x18>

0000000000400d00 <memset@plt>:
  400d00:	ff 25 5a 43 20 00    	jmpq   *0x20435a(%rip)        # 605060 <_GLOBAL_OFFSET_TABLE_+0x60>
  400d06:	68 09 00 00 00       	pushq  $0x9
  400d0b:	e9 50 ff ff ff       	jmpq   400c60 <_init+0x18>

0000000000400d10 <alarm@plt>:
  400d10:	ff 25 52 43 20 00    	jmpq   *0x204352(%rip)        # 605068 <_GLOBAL_OFFSET_TABLE_+0x68>
  400d16:	68 0a 00 00 00       	pushq  $0xa
  400d1b:	e9 40 ff ff ff       	jmpq   400c60 <_init+0x18>

0000000000400d20 <close@plt>:
  400d20:	ff 25 4a 43 20 00    	jmpq   *0x20434a(%rip)        # 605070 <_GLOBAL_OFFSET_TABLE_+0x70>
  400d26:	68 0b 00 00 00       	pushq  $0xb
  400d2b:	e9 30 ff ff ff       	jmpq   400c60 <_init+0x18>

0000000000400d30 <read@plt>:
  400d30:	ff 25 42 43 20 00    	jmpq   *0x204342(%rip)        # 605078 <_GLOBAL_OFFSET_TABLE_+0x78>
  400d36:	68 0c 00 00 00       	pushq  $0xc
  400d3b:	e9 20 ff ff ff       	jmpq   400c60 <_init+0x18>

0000000000400d40 <signal@plt>:
  400d40:	ff 25 3a 43 20 00    	jmpq   *0x20433a(%rip)        # 605080 <_GLOBAL_OFFSET_TABLE_+0x80>
  400d46:	68 0d 00 00 00       	pushq  $0xd
  400d4b:	e9 10 ff ff ff       	jmpq   400c60 <_init+0x18>

0000000000400d50 <gethostbyname@plt>:
  400d50:	ff 25 32 43 20 00    	jmpq   *0x204332(%rip)        # 605088 <_GLOBAL_OFFSET_TABLE_+0x88>
  400d56:	68 0e 00 00 00       	pushq  $0xe
  400d5b:	e9 00 ff ff ff       	jmpq   400c60 <_init+0x18>

0000000000400d60 <__memmove_chk@plt>:
  400d60:	ff 25 2a 43 20 00    	jmpq   *0x20432a(%rip)        # 605090 <_GLOBAL_OFFSET_TABLE_+0x90>
  400d66:	68 0f 00 00 00       	pushq  $0xf
  400d6b:	e9 f0 fe ff ff       	jmpq   400c60 <_init+0x18>

0000000000400d70 <strtol@plt>:
  400d70:	ff 25 22 43 20 00    	jmpq   *0x204322(%rip)        # 605098 <_GLOBAL_OFFSET_TABLE_+0x98>
  400d76:	68 10 00 00 00       	pushq  $0x10
  400d7b:	e9 e0 fe ff ff       	jmpq   400c60 <_init+0x18>

0000000000400d80 <memcpy@plt>:
  400d80:	ff 25 1a 43 20 00    	jmpq   *0x20431a(%rip)        # 6050a0 <_GLOBAL_OFFSET_TABLE_+0xa0>
  400d86:	68 11 00 00 00       	pushq  $0x11
  400d8b:	e9 d0 fe ff ff       	jmpq   400c60 <_init+0x18>

0000000000400d90 <time@plt>:
  400d90:	ff 25 12 43 20 00    	jmpq   *0x204312(%rip)        # 6050a8 <_GLOBAL_OFFSET_TABLE_+0xa8>
  400d96:	68 12 00 00 00       	pushq  $0x12
  400d9b:	e9 c0 fe ff ff       	jmpq   400c60 <_init+0x18>

0000000000400da0 <random@plt>:
  400da0:	ff 25 0a 43 20 00    	jmpq   *0x20430a(%rip)        # 6050b0 <_GLOBAL_OFFSET_TABLE_+0xb0>
  400da6:	68 13 00 00 00       	pushq  $0x13
  400dab:	e9 b0 fe ff ff       	jmpq   400c60 <_init+0x18>

0000000000400db0 <_IO_getc@plt>:
  400db0:	ff 25 02 43 20 00    	jmpq   *0x204302(%rip)        # 6050b8 <_GLOBAL_OFFSET_TABLE_+0xb8>
  400db6:	68 14 00 00 00       	pushq  $0x14
  400dbb:	e9 a0 fe ff ff       	jmpq   400c60 <_init+0x18>

0000000000400dc0 <__isoc99_sscanf@plt>:
  400dc0:	ff 25 fa 42 20 00    	jmpq   *0x2042fa(%rip)        # 6050c0 <_GLOBAL_OFFSET_TABLE_+0xc0>
  400dc6:	68 15 00 00 00       	pushq  $0x15
  400dcb:	e9 90 fe ff ff       	jmpq   400c60 <_init+0x18>

0000000000400dd0 <munmap@plt>:
  400dd0:	ff 25 f2 42 20 00    	jmpq   *0x2042f2(%rip)        # 6050c8 <_GLOBAL_OFFSET_TABLE_+0xc8>
  400dd6:	68 16 00 00 00       	pushq  $0x16
  400ddb:	e9 80 fe ff ff       	jmpq   400c60 <_init+0x18>

0000000000400de0 <__printf_chk@plt>:
  400de0:	ff 25 ea 42 20 00    	jmpq   *0x2042ea(%rip)        # 6050d0 <_GLOBAL_OFFSET_TABLE_+0xd0>
  400de6:	68 17 00 00 00       	pushq  $0x17
  400deb:	e9 70 fe ff ff       	jmpq   400c60 <_init+0x18>

0000000000400df0 <fopen@plt>:
  400df0:	ff 25 e2 42 20 00    	jmpq   *0x2042e2(%rip)        # 6050d8 <_GLOBAL_OFFSET_TABLE_+0xd8>
  400df6:	68 18 00 00 00       	pushq  $0x18
  400dfb:	e9 60 fe ff ff       	jmpq   400c60 <_init+0x18>

0000000000400e00 <getopt@plt>:
  400e00:	ff 25 da 42 20 00    	jmpq   *0x2042da(%rip)        # 6050e0 <_GLOBAL_OFFSET_TABLE_+0xe0>
  400e06:	68 19 00 00 00       	pushq  $0x19
  400e0b:	e9 50 fe ff ff       	jmpq   400c60 <_init+0x18>

0000000000400e10 <strtoul@plt>:
  400e10:	ff 25 d2 42 20 00    	jmpq   *0x2042d2(%rip)        # 6050e8 <_GLOBAL_OFFSET_TABLE_+0xe8>
  400e16:	68 1a 00 00 00       	pushq  $0x1a
  400e1b:	e9 40 fe ff ff       	jmpq   400c60 <_init+0x18>

0000000000400e20 <gethostname@plt>:
  400e20:	ff 25 ca 42 20 00    	jmpq   *0x2042ca(%rip)        # 6050f0 <_GLOBAL_OFFSET_TABLE_+0xf0>
  400e26:	68 1b 00 00 00       	pushq  $0x1b
  400e2b:	e9 30 fe ff ff       	jmpq   400c60 <_init+0x18>

0000000000400e30 <exit@plt>:
  400e30:	ff 25 c2 42 20 00    	jmpq   *0x2042c2(%rip)        # 6050f8 <_GLOBAL_OFFSET_TABLE_+0xf8>
  400e36:	68 1c 00 00 00       	pushq  $0x1c
  400e3b:	e9 20 fe ff ff       	jmpq   400c60 <_init+0x18>

0000000000400e40 <connect@plt>:
  400e40:	ff 25 ba 42 20 00    	jmpq   *0x2042ba(%rip)        # 605100 <_GLOBAL_OFFSET_TABLE_+0x100>
  400e46:	68 1d 00 00 00       	pushq  $0x1d
  400e4b:	e9 10 fe ff ff       	jmpq   400c60 <_init+0x18>

0000000000400e50 <__fprintf_chk@plt>:
  400e50:	ff 25 b2 42 20 00    	jmpq   *0x2042b2(%rip)        # 605108 <_GLOBAL_OFFSET_TABLE_+0x108>
  400e56:	68 1e 00 00 00       	pushq  $0x1e
  400e5b:	e9 00 fe ff ff       	jmpq   400c60 <_init+0x18>

0000000000400e60 <__sprintf_chk@plt>:
  400e60:	ff 25 aa 42 20 00    	jmpq   *0x2042aa(%rip)        # 605110 <_GLOBAL_OFFSET_TABLE_+0x110>
  400e66:	68 1f 00 00 00       	pushq  $0x1f
  400e6b:	e9 f0 fd ff ff       	jmpq   400c60 <_init+0x18>

0000000000400e70 <socket@plt>:
  400e70:	ff 25 a2 42 20 00    	jmpq   *0x2042a2(%rip)        # 605118 <_GLOBAL_OFFSET_TABLE_+0x118>
  400e76:	68 20 00 00 00       	pushq  $0x20
  400e7b:	e9 e0 fd ff ff       	jmpq   400c60 <_init+0x18>

Disassembly of section .text:

0000000000400e80 <_start>:
  400e80:	31 ed                	xor    %ebp,%ebp
  400e82:	49 89 d1             	mov    %rdx,%r9
  400e85:	5e                   	pop    %rsi
  400e86:	48 89 e2             	mov    %rsp,%rdx
  400e89:	48 83 e4 f0          	and    $0xfffffffffffffff0,%rsp
  400e8d:	50                   	push   %rax
  400e8e:	54                   	push   %rsp
  400e8f:	49 c7 c0 80 2f 40 00 	mov    $0x402f80,%r8
  400e96:	48 c7 c1 10 2f 40 00 	mov    $0x402f10,%rcx
  400e9d:	48 c7 c7 73 11 40 00 	mov    $0x401173,%rdi
  400ea4:	ff 15 46 41 20 00    	callq  *0x204146(%rip)        # 604ff0 <_DYNAMIC+0x1d0>
  400eaa:	f4                   	hlt    
  400eab:	0f 1f 44 00 00       	nopl   0x0(%rax,%rax,1)

0000000000400eb0 <_dl_relocate_static_pie>:
  400eb0:	f3 c3                	repz retq 
  400eb2:	66 2e 0f 1f 84 00 00 	nopw   %cs:0x0(%rax,%rax,1)
  400eb9:	00 00 00 
  400ebc:	0f 1f 40 00          	nopl   0x0(%rax)

0000000000400ec0 <deregister_tm_clones>:
  400ec0:	55                   	push   %rbp
  400ec1:	b8 90 54 60 00       	mov    $0x605490,%eax
  400ec6:	48 3d 90 54 60 00    	cmp    $0x605490,%rax
  400ecc:	48 89 e5             	mov    %rsp,%rbp
  400ecf:	74 17                	je     400ee8 <deregister_tm_clones+0x28>
  400ed1:	b8 00 00 00 00       	mov    $0x0,%eax
  400ed6:	48 85 c0             	test   %rax,%rax
  400ed9:	74 0d                	je     400ee8 <deregister_tm_clones+0x28>
  400edb:	5d                   	pop    %rbp
  400edc:	bf 90 54 60 00       	mov    $0x605490,%edi
  400ee1:	ff e0                	jmpq   *%rax
  400ee3:	0f 1f 44 00 00       	nopl   0x0(%rax,%rax,1)
  400ee8:	5d                   	pop    %rbp
  400ee9:	c3                   	retq   
  400eea:	66 0f 1f 44 00 00    	nopw   0x0(%rax,%rax,1)

0000000000400ef0 <register_tm_clones>:
  400ef0:	be 90 54 60 00       	mov    $0x605490,%esi
  400ef5:	55                   	push   %rbp
  400ef6:	48 81 ee 90 54 60 00 	sub    $0x605490,%rsi
  400efd:	48 89 e5             	mov    %rsp,%rbp
  400f00:	48 c1 fe 03          	sar    $0x3,%rsi
  400f04:	48 89 f0             	mov    %rsi,%rax
  400f07:	48 c1 e8 3f          	shr    $0x3f,%rax
  400f0b:	48 01 c6             	add    %rax,%rsi
  400f0e:	48 d1 fe             	sar    %rsi
  400f11:	74 15                	je     400f28 <register_tm_clones+0x38>
  400f13:	b8 00 00 00 00       	mov    $0x0,%eax
  400f18:	48 85 c0             	test   %rax,%rax
  400f1b:	74 0b                	je     400f28 <register_tm_clones+0x38>
  400f1d:	5d                   	pop    %rbp
  400f1e:	bf 90 54 60 00       	mov    $0x605490,%edi
  400f23:	ff e0                	jmpq   *%rax
  400f25:	0f 1f 00             	nopl   (%rax)
  400f28:	5d                   	pop    %rbp
  400f29:	c3                   	retq   
  400f2a:	66 0f 1f 44 00 00    	nopw   0x0(%rax,%rax,1)

0000000000400f30 <__do_global_dtors_aux>:
  400f30:	80 3d 91 45 20 00 00 	cmpb   $0x0,0x204591(%rip)        # 6054c8 <completed.7698>
  400f37:	75 17                	jne    400f50 <__do_global_dtors_aux+0x20>
  400f39:	55                   	push   %rbp
  400f3a:	48 89 e5             	mov    %rsp,%rbp
  400f3d:	e8 7e ff ff ff       	callq  400ec0 <deregister_tm_clones>
  400f42:	c6 05 7f 45 20 00 01 	movb   $0x1,0x20457f(%rip)        # 6054c8 <completed.7698>
  400f49:	5d                   	pop    %rbp
  400f4a:	c3                   	retq   
  400f4b:	0f 1f 44 00 00       	nopl   0x0(%rax,%rax,1)
  400f50:	f3 c3                	repz retq 
  400f52:	0f 1f 40 00          	nopl   0x0(%rax)
  400f56:	66 2e 0f 1f 84 00 00 	nopw   %cs:0x0(%rax,%rax,1)
  400f5d:	00 00 00 

0000000000400f60 <frame_dummy>:
  400f60:	55                   	push   %rbp
  400f61:	48 89 e5             	mov    %rsp,%rbp
  400f64:	5d                   	pop    %rbp
  400f65:	eb 89                	jmp    400ef0 <register_tm_clones>

0000000000400f67 <usage>:
  400f67:	48 83 ec 08          	sub    $0x8,%rsp
  400f6b:	48 89 fa             	mov    %rdi,%rdx
  400f6e:	83 3d 93 45 20 00 00 	cmpl   $0x0,0x204593(%rip)        # 605508 <is_checker>
  400f75:	74 46                	je     400fbd <usage+0x56>
  400f77:	be 98 2f 40 00       	mov    $0x402f98,%esi
  400f7c:	bf 01 00 00 00       	mov    $0x1,%edi
  400f81:	b8 00 00 00 00       	mov    $0x0,%eax
  400f86:	e8 55 fe ff ff       	callq  400de0 <__printf_chk@plt>
  400f8b:	bf d0 2f 40 00       	mov    $0x402fd0,%edi
  400f90:	e8 2b fd ff ff       	callq  400cc0 <puts@plt>
  400f95:	bf 48 31 40 00       	mov    $0x403148,%edi
  400f9a:	e8 21 fd ff ff       	callq  400cc0 <puts@plt>
  400f9f:	bf f8 2f 40 00       	mov    $0x402ff8,%edi
  400fa4:	e8 17 fd ff ff       	callq  400cc0 <puts@plt>
  400fa9:	bf 62 31 40 00       	mov    $0x403162,%edi
  400fae:	e8 0d fd ff ff       	callq  400cc0 <puts@plt>
  400fb3:	bf 00 00 00 00       	mov    $0x0,%edi
  400fb8:	e8 73 fe ff ff       	callq  400e30 <exit@plt>
  400fbd:	be 7e 31 40 00       	mov    $0x40317e,%esi
  400fc2:	bf 01 00 00 00       	mov    $0x1,%edi
  400fc7:	b8 00 00 00 00       	mov    $0x0,%eax
  400fcc:	e8 0f fe ff ff       	callq  400de0 <__printf_chk@plt>
  400fd1:	bf 20 30 40 00       	mov    $0x403020,%edi
  400fd6:	e8 e5 fc ff ff       	callq  400cc0 <puts@plt>
  400fdb:	bf 48 30 40 00       	mov    $0x403048,%edi
  400fe0:	e8 db fc ff ff       	callq  400cc0 <puts@plt>
  400fe5:	bf 9c 31 40 00       	mov    $0x40319c,%edi
  400fea:	e8 d1 fc ff ff       	callq  400cc0 <puts@plt>
  400fef:	eb c2                	jmp    400fb3 <usage+0x4c>

0000000000400ff1 <initialize_target>:
  400ff1:	55                   	push   %rbp
  400ff2:	53                   	push   %rbx
  400ff3:	48 81 ec 18 21 00 00 	sub    $0x2118,%rsp
  400ffa:	89 f5                	mov    %esi,%ebp
  400ffc:	64 48 8b 04 25 28 00 	mov    %fs:0x28,%rax
  401003:	00 00 
  401005:	48 89 84 24 08 21 00 	mov    %rax,0x2108(%rsp)
  40100c:	00 
  40100d:	31 c0                	xor    %eax,%eax
  40100f:	89 3d e3 44 20 00    	mov    %edi,0x2044e3(%rip)        # 6054f8 <check_level>
  401015:	8b 3d 2d 41 20 00    	mov    0x20412d(%rip),%edi        # 605148 <target_id>
  40101b:	e8 d1 1e 00 00       	callq  402ef1 <gencookie>
  401020:	89 05 de 44 20 00    	mov    %eax,0x2044de(%rip)        # 605504 <cookie>
  401026:	89 c7                	mov    %eax,%edi
  401028:	e8 c4 1e 00 00       	callq  402ef1 <gencookie>
  40102d:	89 05 cd 44 20 00    	mov    %eax,0x2044cd(%rip)        # 605500 <authkey>
  401033:	8b 05 0f 41 20 00    	mov    0x20410f(%rip),%eax        # 605148 <target_id>
  401039:	8d 78 01             	lea    0x1(%rax),%edi
  40103c:	e8 4f fc ff ff       	callq  400c90 <srandom@plt>
  401041:	e8 5a fd ff ff       	callq  400da0 <random@plt>
  401046:	89 c7                	mov    %eax,%edi
  401048:	e8 f2 02 00 00       	callq  40133f <scramble>
  40104d:	89 c3                	mov    %eax,%ebx
  40104f:	85 ed                	test   %ebp,%ebp
  401051:	75 54                	jne    4010a7 <initialize_target+0xb6>
  401053:	b8 00 00 00 00       	mov    $0x0,%eax
  401058:	01 d8                	add    %ebx,%eax
  40105a:	0f b7 c0             	movzwl %ax,%eax
  40105d:	8d 04 c5 00 01 00 00 	lea    0x100(,%rax,8),%eax
  401064:	89 c0                	mov    %eax,%eax
  401066:	48 89 05 13 44 20 00 	mov    %rax,0x204413(%rip)        # 605480 <buf_offset>
  40106d:	c6 05 b4 50 20 00 72 	movb   $0x72,0x2050b4(%rip)        # 606128 <target_prefix>
  401074:	83 3d 0d 44 20 00 00 	cmpl   $0x0,0x20440d(%rip)        # 605488 <notify>
  40107b:	74 09                	je     401086 <initialize_target+0x95>
  40107d:	83 3d 84 44 20 00 00 	cmpl   $0x0,0x204484(%rip)        # 605508 <is_checker>
  401084:	74 39                	je     4010bf <initialize_target+0xce>
  401086:	48 8b 84 24 08 21 00 	mov    0x2108(%rsp),%rax
  40108d:	00 
  40108e:	64 48 33 04 25 28 00 	xor    %fs:0x28,%rax
  401095:	00 00 
  401097:	0f 85 d1 00 00 00    	jne    40116e <initialize_target+0x17d>
  40109d:	48 81 c4 18 21 00 00 	add    $0x2118,%rsp
  4010a4:	5b                   	pop    %rbx
  4010a5:	5d                   	pop    %rbp
  4010a6:	c3                   	retq   
  4010a7:	bf 00 00 00 00       	mov    $0x0,%edi
  4010ac:	e8 df fc ff ff       	callq  400d90 <time@plt>
  4010b1:	89 c7                	mov    %eax,%edi
  4010b3:	e8 d8 fb ff ff       	callq  400c90 <srandom@plt>
  4010b8:	e8 e3 fc ff ff       	callq  400da0 <random@plt>
  4010bd:	eb 99                	jmp    401058 <initialize_target+0x67>
  4010bf:	be 00 01 00 00       	mov    $0x100,%esi
  4010c4:	48 89 e7             	mov    %rsp,%rdi
  4010c7:	e8 54 fd ff ff       	callq  400e20 <gethostname@plt>
  4010cc:	89 c5                	mov    %eax,%ebp
  4010ce:	85 c0                	test   %eax,%eax
  4010d0:	75 23                	jne    4010f5 <initialize_target+0x104>
  4010d2:	89 c3                	mov    %eax,%ebx
  4010d4:	48 63 c3             	movslq %ebx,%rax
  4010d7:	48 8b 3c c5 60 51 60 	mov    0x605160(,%rax,8),%rdi
  4010de:	00 
  4010df:	48 85 ff             	test   %rdi,%rdi
  4010e2:	74 2a                	je     40110e <initialize_target+0x11d>
  4010e4:	48 89 e6             	mov    %rsp,%rsi
  4010e7:	e8 84 fb ff ff       	callq  400c70 <strcasecmp@plt>
  4010ec:	85 c0                	test   %eax,%eax
  4010ee:	74 19                	je     401109 <initialize_target+0x118>
  4010f0:	83 c3 01             	add    $0x1,%ebx
  4010f3:	eb df                	jmp    4010d4 <initialize_target+0xe3>
  4010f5:	bf 78 30 40 00       	mov    $0x403078,%edi
  4010fa:	e8 c1 fb ff ff       	callq  400cc0 <puts@plt>
  4010ff:	bf 08 00 00 00       	mov    $0x8,%edi
  401104:	e8 27 fd ff ff       	callq  400e30 <exit@plt>
  401109:	bd 01 00 00 00       	mov    $0x1,%ebp
  40110e:	85 ed                	test   %ebp,%ebp
  401110:	74 3b                	je     40114d <initialize_target+0x15c>
  401112:	48 8d bc 24 00 01 00 	lea    0x100(%rsp),%rdi
  401119:	00 
  40111a:	e8 27 1b 00 00       	callq  402c46 <init_driver>
  40111f:	85 c0                	test   %eax,%eax
  401121:	0f 89 5f ff ff ff    	jns    401086 <initialize_target+0x95>
  401127:	48 8d 94 24 00 01 00 	lea    0x100(%rsp),%rdx
  40112e:	00 
  40112f:	be f0 30 40 00       	mov    $0x4030f0,%esi
  401134:	bf 01 00 00 00       	mov    $0x1,%edi
  401139:	b8 00 00 00 00       	mov    $0x0,%eax
  40113e:	e8 9d fc ff ff       	callq  400de0 <__printf_chk@plt>
  401143:	bf 08 00 00 00       	mov    $0x8,%edi
  401148:	e8 e3 fc ff ff       	callq  400e30 <exit@plt>
  40114d:	48 89 e2             	mov    %rsp,%rdx
  401150:	be b0 30 40 00       	mov    $0x4030b0,%esi
  401155:	bf 01 00 00 00       	mov    $0x1,%edi
  40115a:	b8 00 00 00 00       	mov    $0x0,%eax
  40115f:	e8 7c fc ff ff       	callq  400de0 <__printf_chk@plt>
  401164:	bf 08 00 00 00       	mov    $0x8,%edi
  401169:	e8 c2 fc ff ff       	callq  400e30 <exit@plt>
  40116e:	e8 6d fb ff ff       	callq  400ce0 <__stack_chk_fail@plt>

0000000000401173 <main>:
  401173:	41 56                	push   %r14
  401175:	41 55                	push   %r13
  401177:	41 54                	push   %r12
  401179:	55                   	push   %rbp
  40117a:	53                   	push   %rbx
  40117b:	41 89 fc             	mov    %edi,%r12d
  40117e:	48 89 f3             	mov    %rsi,%rbx
  401181:	be 83 1f 40 00       	mov    $0x401f83,%esi
  401186:	bf 0b 00 00 00       	mov    $0xb,%edi
  40118b:	e8 b0 fb ff ff       	callq  400d40 <signal@plt>
  401190:	be 35 1f 40 00       	mov    $0x401f35,%esi
  401195:	bf 07 00 00 00       	mov    $0x7,%edi
  40119a:	e8 a1 fb ff ff       	callq  400d40 <signal@plt>
  40119f:	be d1 1f 40 00       	mov    $0x401fd1,%esi
  4011a4:	bf 04 00 00 00       	mov    $0x4,%edi
  4011a9:	e8 92 fb ff ff       	callq  400d40 <signal@plt>
  4011ae:	83 3d 53 43 20 00 00 	cmpl   $0x0,0x204353(%rip)        # 605508 <is_checker>
  4011b5:	75 24                	jne    4011db <main+0x68>
  4011b7:	bd b5 31 40 00       	mov    $0x4031b5,%ebp
  4011bc:	48 8b 05 dd 42 20 00 	mov    0x2042dd(%rip),%rax        # 6054a0 <stdin@@GLIBC_2.2.5>
  4011c3:	48 89 05 26 43 20 00 	mov    %rax,0x204326(%rip)        # 6054f0 <infile>
  4011ca:	41 bd 00 00 00 00    	mov    $0x0,%r13d
  4011d0:	41 be 00 00 00 00    	mov    $0x0,%r14d
  4011d6:	e9 85 00 00 00       	jmpq   401260 <main+0xed>
  4011db:	be 1f 20 40 00       	mov    $0x40201f,%esi
  4011e0:	bf 0e 00 00 00       	mov    $0xe,%edi
  4011e5:	e8 56 fb ff ff       	callq  400d40 <signal@plt>
  4011ea:	bf 05 00 00 00       	mov    $0x5,%edi
  4011ef:	e8 1c fb ff ff       	callq  400d10 <alarm@plt>
  4011f4:	bd ba 31 40 00       	mov    $0x4031ba,%ebp
  4011f9:	eb c1                	jmp    4011bc <main+0x49>
  4011fb:	48 8b 3b             	mov    (%rbx),%rdi
  4011fe:	e8 64 fd ff ff       	callq  400f67 <usage>
  401203:	be 85 34 40 00       	mov    $0x403485,%esi
  401208:	48 8b 3d 99 42 20 00 	mov    0x204299(%rip),%rdi        # 6054a8 <optarg@@GLIBC_2.2.5>
  40120f:	e8 dc fb ff ff       	callq  400df0 <fopen@plt>
  401214:	48 89 05 d5 42 20 00 	mov    %rax,0x2042d5(%rip)        # 6054f0 <infile>
  40121b:	48 85 c0             	test   %rax,%rax
  40121e:	75 40                	jne    401260 <main+0xed>
  401220:	48 8b 0d 81 42 20 00 	mov    0x204281(%rip),%rcx        # 6054a8 <optarg@@GLIBC_2.2.5>
  401227:	ba c2 31 40 00       	mov    $0x4031c2,%edx
  40122c:	be 01 00 00 00       	mov    $0x1,%esi
  401231:	48 8b 3d 88 42 20 00 	mov    0x204288(%rip),%rdi        # 6054c0 <stderr@@GLIBC_2.2.5>
  401238:	e8 13 fc ff ff       	callq  400e50 <__fprintf_chk@plt>
  40123d:	b8 01 00 00 00       	mov    $0x1,%eax
  401242:	e9 cc 00 00 00       	jmpq   401313 <main+0x1a0>
  401247:	ba 10 00 00 00       	mov    $0x10,%edx
  40124c:	be 00 00 00 00       	mov    $0x0,%esi
  401251:	48 8b 3d 50 42 20 00 	mov    0x204250(%rip),%rdi        # 6054a8 <optarg@@GLIBC_2.2.5>
  401258:	e8 b3 fb ff ff       	callq  400e10 <strtoul@plt>
  40125d:	41 89 c6             	mov    %eax,%r14d
  401260:	48 89 ea             	mov    %rbp,%rdx
  401263:	48 89 de             	mov    %rbx,%rsi
  401266:	44 89 e7             	mov    %r12d,%edi
  401269:	e8 92 fb ff ff       	callq  400e00 <getopt@plt>
  40126e:	3c ff                	cmp    $0xff,%al
  401270:	74 57                	je     4012c9 <main+0x156>
  401272:	0f be d0             	movsbl %al,%edx
  401275:	83 e8 61             	sub    $0x61,%eax
  401278:	3c 10                	cmp    $0x10,%al
  40127a:	77 31                	ja     4012ad <main+0x13a>
  40127c:	0f b6 c0             	movzbl %al,%eax
  40127f:	ff 24 c5 00 32 40 00 	jmpq   *0x403200(,%rax,8)
  401286:	ba 0a 00 00 00       	mov    $0xa,%edx
  40128b:	be 00 00 00 00       	mov    $0x0,%esi
  401290:	48 8b 3d 11 42 20 00 	mov    0x204211(%rip),%rdi        # 6054a8 <optarg@@GLIBC_2.2.5>
  401297:	e8 d4 fa ff ff       	callq  400d70 <strtol@plt>
  40129c:	41 89 c5             	mov    %eax,%r13d
  40129f:	eb bf                	jmp    401260 <main+0xed>
  4012a1:	c7 05 dd 41 20 00 00 	movl   $0x0,0x2041dd(%rip)        # 605488 <notify>
  4012a8:	00 00 00 
  4012ab:	eb b3                	jmp    401260 <main+0xed>
  4012ad:	be df 31 40 00       	mov    $0x4031df,%esi
  4012b2:	bf 01 00 00 00       	mov    $0x1,%edi
  4012b7:	b8 00 00 00 00       	mov    $0x0,%eax
  4012bc:	e8 1f fb ff ff       	callq  400de0 <__printf_chk@plt>
  4012c1:	48 8b 3b             	mov    (%rbx),%rdi
  4012c4:	e8 9e fc ff ff       	callq  400f67 <usage>
  4012c9:	be 01 00 00 00       	mov    $0x1,%esi
  4012ce:	44 89 ef             	mov    %r13d,%edi
  4012d1:	e8 1b fd ff ff       	callq  400ff1 <initialize_target>
  4012d6:	83 3d 2b 42 20 00 00 	cmpl   $0x0,0x20422b(%rip)        # 605508 <is_checker>
  4012dd:	74 09                	je     4012e8 <main+0x175>
  4012df:	44 39 35 1a 42 20 00 	cmp    %r14d,0x20421a(%rip)        # 605500 <authkey>
  4012e6:	75 34                	jne    40131c <main+0x1a9>
  4012e8:	8b 15 16 42 20 00    	mov    0x204216(%rip),%edx        # 605504 <cookie>
  4012ee:	be f2 31 40 00       	mov    $0x4031f2,%esi
  4012f3:	bf 01 00 00 00       	mov    $0x1,%edi
  4012f8:	b8 00 00 00 00       	mov    $0x0,%eax
  4012fd:	e8 de fa ff ff       	callq  400de0 <__printf_chk@plt>
  401302:	48 8b 3d 77 41 20 00 	mov    0x204177(%rip),%rdi        # 605480 <buf_offset>
  401309:	e8 64 0d 00 00       	callq  402072 <launch>
  40130e:	b8 00 00 00 00       	mov    $0x0,%eax
  401313:	5b                   	pop    %rbx
  401314:	5d                   	pop    %rbp
  401315:	41 5c                	pop    %r12
  401317:	41 5d                	pop    %r13
  401319:	41 5e                	pop    %r14
  40131b:	c3                   	retq   
  40131c:	44 89 f2             	mov    %r14d,%edx
  40131f:	be 18 31 40 00       	mov    $0x403118,%esi
  401324:	bf 01 00 00 00       	mov    $0x1,%edi
  401329:	b8 00 00 00 00       	mov    $0x0,%eax
  40132e:	e8 ad fa ff ff       	callq  400de0 <__printf_chk@plt>
  401333:	b8 00 00 00 00       	mov    $0x0,%eax
  401338:	e8 81 08 00 00       	callq  401bbe <check_fail>
  40133d:	eb a9                	jmp    4012e8 <main+0x175>

000000000040133f <scramble>:
  40133f:	48 83 ec 38          	sub    $0x38,%rsp
  401343:	64 48 8b 04 25 28 00 	mov    %fs:0x28,%rax
  40134a:	00 00 
  40134c:	48 89 44 24 28       	mov    %rax,0x28(%rsp)
  401351:	31 c0                	xor    %eax,%eax
  401353:	eb 10                	jmp    401365 <scramble+0x26>
  401355:	69 d0 fc 9d 00 00    	imul   $0x9dfc,%eax,%edx
  40135b:	01 fa                	add    %edi,%edx
  40135d:	89 c1                	mov    %eax,%ecx
  40135f:	89 14 8c             	mov    %edx,(%rsp,%rcx,4)
  401362:	83 c0 01             	add    $0x1,%eax
  401365:	83 f8 09             	cmp    $0x9,%eax
  401368:	76 eb                	jbe    401355 <scramble+0x16>
  40136a:	8b 44 24 20          	mov    0x20(%rsp),%eax
  40136e:	69 c0 ed ae 00 00    	imul   $0xaeed,%eax,%eax
  401374:	89 44 24 20          	mov    %eax,0x20(%rsp)
  401378:	8b 04 24             	mov    (%rsp),%eax
  40137b:	69 c0 35 c4 00 00    	imul   $0xc435,%eax,%eax
  401381:	89 04 24             	mov    %eax,(%rsp)
  401384:	8b 44 24 18          	mov    0x18(%rsp),%eax
  401388:	69 c0 f4 2a 00 00    	imul   $0x2af4,%eax,%eax
  40138e:	89 44 24 18          	mov    %eax,0x18(%rsp)
  401392:	8b 44 24 08          	mov    0x8(%rsp),%eax
  401396:	69 c0 7d 1b 00 00    	imul   $0x1b7d,%eax,%eax
  40139c:	89 44 24 08          	mov    %eax,0x8(%rsp)
  4013a0:	8b 44 24 24          	mov    0x24(%rsp),%eax
  4013a4:	69 c0 83 38 00 00    	imul   $0x3883,%eax,%eax
  4013aa:	89 44 24 24          	mov    %eax,0x24(%rsp)
  4013ae:	8b 44 24 08          	mov    0x8(%rsp),%eax
  4013b2:	69 c0 08 2b 00 00    	imul   $0x2b08,%eax,%eax
  4013b8:	89 44 24 08          	mov    %eax,0x8(%rsp)
  4013bc:	8b 44 24 1c          	mov    0x1c(%rsp),%eax
  4013c0:	69 c0 da 63 00 00    	imul   $0x63da,%eax,%eax
  4013c6:	89 44 24 1c          	mov    %eax,0x1c(%rsp)
  4013ca:	8b 44 24 14          	mov    0x14(%rsp),%eax
  4013ce:	69 c0 57 5d 00 00    	imul   $0x5d57,%eax,%eax
  4013d4:	89 44 24 14          	mov    %eax,0x14(%rsp)
  4013d8:	8b 44 24 04          	mov    0x4(%rsp),%eax
  4013dc:	69 c0 c6 7e 00 00    	imul   $0x7ec6,%eax,%eax
  4013e2:	89 44 24 04          	mov    %eax,0x4(%rsp)
  4013e6:	8b 04 24             	mov    (%rsp),%eax
  4013e9:	69 c0 3c d8 00 00    	imul   $0xd83c,%eax,%eax
  4013ef:	89 04 24             	mov    %eax,(%rsp)
  4013f2:	8b 44 24 14          	mov    0x14(%rsp),%eax
  4013f6:	69 c0 d9 90 00 00    	imul   $0x90d9,%eax,%eax
  4013fc:	89 44 24 14          	mov    %eax,0x14(%rsp)
  401400:	8b 04 24             	mov    (%rsp),%eax
  401403:	69 c0 dc 09 00 00    	imul   $0x9dc,%eax,%eax
  401409:	89 04 24             	mov    %eax,(%rsp)
  40140c:	8b 44 24 0c          	mov    0xc(%rsp),%eax
  401410:	69 c0 f6 bc 00 00    	imul   $0xbcf6,%eax,%eax
  401416:	89 44 24 0c          	mov    %eax,0xc(%rsp)
  40141a:	8b 44 24 10          	mov    0x10(%rsp),%eax
  40141e:	69 c0 e5 88 00 00    	imul   $0x88e5,%eax,%eax
  401424:	89 44 24 10          	mov    %eax,0x10(%rsp)
  401428:	8b 44 24 1c          	mov    0x1c(%rsp),%eax
  40142c:	69 c0 c7 71 00 00    	imul   $0x71c7,%eax,%eax
  401432:	89 44 24 1c          	mov    %eax,0x1c(%rsp)
  401436:	8b 44 24 20          	mov    0x20(%rsp),%eax
  40143a:	69 c0 25 16 00 00    	imul   $0x1625,%eax,%eax
  401440:	89 44 24 20          	mov    %eax,0x20(%rsp)
  401444:	8b 44 24 20          	mov    0x20(%rsp),%eax
  401448:	69 c0 66 44 00 00    	imul   $0x4466,%eax,%eax
  40144e:	89 44 24 20          	mov    %eax,0x20(%rsp)
  401452:	8b 44 24 10          	mov    0x10(%rsp),%eax
  401456:	69 c0 8c 13 00 00    	imul   $0x138c,%eax,%eax
  40145c:	89 44 24 10          	mov    %eax,0x10(%rsp)
  401460:	8b 44 24 0c          	mov    0xc(%rsp),%eax
  401464:	69 c0 f0 43 00 00    	imul   $0x43f0,%eax,%eax
  40146a:	89 44 24 0c          	mov    %eax,0xc(%rsp)
  40146e:	8b 44 24 14          	mov    0x14(%rsp),%eax
  401472:	69 c0 2d 87 00 00    	imul   $0x872d,%eax,%eax
  401478:	89 44 24 14          	mov    %eax,0x14(%rsp)
  40147c:	8b 44 24 04          	mov    0x4(%rsp),%eax
  401480:	69 c0 10 a2 00 00    	imul   $0xa210,%eax,%eax
  401486:	89 44 24 04          	mov    %eax,0x4(%rsp)
  40148a:	8b 44 24 08          	mov    0x8(%rsp),%eax
  40148e:	69 c0 0b bc 00 00    	imul   $0xbc0b,%eax,%eax
  401494:	89 44 24 08          	mov    %eax,0x8(%rsp)
  401498:	8b 44 24 20          	mov    0x20(%rsp),%eax
  40149c:	69 c0 ae 55 00 00    	imul   $0x55ae,%eax,%eax
  4014a2:	89 44 24 20          	mov    %eax,0x20(%rsp)
  4014a6:	8b 04 24             	mov    (%rsp),%eax
  4014a9:	69 c0 f8 e6 00 00    	imul   $0xe6f8,%eax,%eax
  4014af:	89 04 24             	mov    %eax,(%rsp)
  4014b2:	8b 44 24 08          	mov    0x8(%rsp),%eax
  4014b6:	69 c0 85 5e 00 00    	imul   $0x5e85,%eax,%eax
  4014bc:	89 44 24 08          	mov    %eax,0x8(%rsp)
  4014c0:	8b 44 24 20          	mov    0x20(%rsp),%eax
  4014c4:	69 c0 68 54 00 00    	imul   $0x5468,%eax,%eax
  4014ca:	89 44 24 20          	mov    %eax,0x20(%rsp)
  4014ce:	8b 44 24 14          	mov    0x14(%rsp),%eax
  4014d2:	69 c0 7b 62 00 00    	imul   $0x627b,%eax,%eax
  4014d8:	89 44 24 14          	mov    %eax,0x14(%rsp)
  4014dc:	8b 44 24 14          	mov    0x14(%rsp),%eax
  4014e0:	69 c0 51 a9 00 00    	imul   $0xa951,%eax,%eax
  4014e6:	89 44 24 14          	mov    %eax,0x14(%rsp)
  4014ea:	8b 04 24             	mov    (%rsp),%eax
  4014ed:	69 c0 e2 ae 00 00    	imul   $0xaee2,%eax,%eax
  4014f3:	89 04 24             	mov    %eax,(%rsp)
  4014f6:	8b 44 24 14          	mov    0x14(%rsp),%eax
  4014fa:	69 c0 9a 97 00 00    	imul   $0x979a,%eax,%eax
  401500:	89 44 24 14          	mov    %eax,0x14(%rsp)
  401504:	8b 44 24 0c          	mov    0xc(%rsp),%eax
  401508:	69 c0 c3 8b 00 00    	imul   $0x8bc3,%eax,%eax
  40150e:	89 44 24 0c          	mov    %eax,0xc(%rsp)
  401512:	8b 44 24 14          	mov    0x14(%rsp),%eax
  401516:	69 c0 5d 41 00 00    	imul   $0x415d,%eax,%eax
  40151c:	89 44 24 14          	mov    %eax,0x14(%rsp)
  401520:	8b 44 24 10          	mov    0x10(%rsp),%eax
  401524:	69 c0 19 88 00 00    	imul   $0x8819,%eax,%eax
  40152a:	89 44 24 10          	mov    %eax,0x10(%rsp)
  40152e:	8b 44 24 08          	mov    0x8(%rsp),%eax
  401532:	69 c0 84 3f 00 00    	imul   $0x3f84,%eax,%eax
  401538:	89 44 24 08          	mov    %eax,0x8(%rsp)
  40153c:	8b 44 24 0c          	mov    0xc(%rsp),%eax
  401540:	69 c0 f3 83 00 00    	imul   $0x83f3,%eax,%eax
  401546:	89 44 24 0c          	mov    %eax,0xc(%rsp)
  40154a:	8b 44 24 10          	mov    0x10(%rsp),%eax
  40154e:	69 c0 7d 48 00 00    	imul   $0x487d,%eax,%eax
  401554:	89 44 24 10          	mov    %eax,0x10(%rsp)
  401558:	8b 44 24 14          	mov    0x14(%rsp),%eax
  40155c:	69 c0 e6 78 00 00    	imul   $0x78e6,%eax,%eax
  401562:	89 44 24 14          	mov    %eax,0x14(%rsp)
  401566:	8b 44 24 10          	mov    0x10(%rsp),%eax
  40156a:	69 c0 ee 2b 00 00    	imul   $0x2bee,%eax,%eax
  401570:	89 44 24 10          	mov    %eax,0x10(%rsp)
  401574:	8b 44 24 18          	mov    0x18(%rsp),%eax
  401578:	69 c0 eb 1d 00 00    	imul   $0x1deb,%eax,%eax
  40157e:	89 44 24 18          	mov    %eax,0x18(%rsp)
  401582:	8b 44 24 1c          	mov    0x1c(%rsp),%eax
  401586:	69 c0 08 a3 00 00    	imul   $0xa308,%eax,%eax
  40158c:	89 44 24 1c          	mov    %eax,0x1c(%rsp)
  401590:	8b 44 24 18          	mov    0x18(%rsp),%eax
  401594:	69 c0 1a d2 00 00    	imul   $0xd21a,%eax,%eax
  40159a:	89 44 24 18          	mov    %eax,0x18(%rsp)
  40159e:	8b 44 24 24          	mov    0x24(%rsp),%eax
  4015a2:	69 c0 cf 6b 00 00    	imul   $0x6bcf,%eax,%eax
  4015a8:	89 44 24 24          	mov    %eax,0x24(%rsp)
  4015ac:	8b 44 24 18          	mov    0x18(%rsp),%eax
  4015b0:	69 c0 b5 55 00 00    	imul   $0x55b5,%eax,%eax
  4015b6:	89 44 24 18          	mov    %eax,0x18(%rsp)
  4015ba:	8b 44 24 24          	mov    0x24(%rsp),%eax
  4015be:	69 c0 07 54 00 00    	imul   $0x5407,%eax,%eax
  4015c4:	89 44 24 24          	mov    %eax,0x24(%rsp)
  4015c8:	8b 44 24 1c          	mov    0x1c(%rsp),%eax
  4015cc:	69 c0 56 47 00 00    	imul   $0x4756,%eax,%eax
  4015d2:	89 44 24 1c          	mov    %eax,0x1c(%rsp)
  4015d6:	8b 44 24 10          	mov    0x10(%rsp),%eax
  4015da:	69 c0 40 25 00 00    	imul   $0x2540,%eax,%eax
  4015e0:	89 44 24 10          	mov    %eax,0x10(%rsp)
  4015e4:	8b 44 24 08          	mov    0x8(%rsp),%eax
  4015e8:	69 c0 60 99 00 00    	imul   $0x9960,%eax,%eax
  4015ee:	89 44 24 08          	mov    %eax,0x8(%rsp)
  4015f2:	8b 44 24 14          	mov    0x14(%rsp),%eax
  4015f6:	69 c0 43 a3 00 00    	imul   $0xa343,%eax,%eax
  4015fc:	89 44 24 14          	mov    %eax,0x14(%rsp)
  401600:	8b 44 24 14          	mov    0x14(%rsp),%eax
  401604:	69 c0 88 bb 00 00    	imul   $0xbb88,%eax,%eax
  40160a:	89 44 24 14          	mov    %eax,0x14(%rsp)
  40160e:	8b 44 24 1c          	mov    0x1c(%rsp),%eax
  401612:	69 c0 83 ed 00 00    	imul   $0xed83,%eax,%eax
  401618:	89 44 24 1c          	mov    %eax,0x1c(%rsp)
  40161c:	8b 44 24 1c          	mov    0x1c(%rsp),%eax
  401620:	69 c0 78 a9 00 00    	imul   $0xa978,%eax,%eax
  401626:	89 44 24 1c          	mov    %eax,0x1c(%rsp)
  40162a:	8b 44 24 08          	mov    0x8(%rsp),%eax
  40162e:	69 c0 7f 65 00 00    	imul   $0x657f,%eax,%eax
  401634:	89 44 24 08          	mov    %eax,0x8(%rsp)
  401638:	8b 04 24             	mov    (%rsp),%eax
  40163b:	69 c0 8a 3a 00 00    	imul   $0x3a8a,%eax,%eax
  401641:	89 04 24             	mov    %eax,(%rsp)
  401644:	8b 44 24 24          	mov    0x24(%rsp),%eax
  401648:	69 c0 f2 f0 00 00    	imul   $0xf0f2,%eax,%eax
  40164e:	89 44 24 24          	mov    %eax,0x24(%rsp)
  401652:	8b 44 24 08          	mov    0x8(%rsp),%eax
  401656:	69 c0 54 a4 00 00    	imul   $0xa454,%eax,%eax
  40165c:	89 44 24 08          	mov    %eax,0x8(%rsp)
  401660:	8b 44 24 04          	mov    0x4(%rsp),%eax
  401664:	69 c0 e6 d4 00 00    	imul   $0xd4e6,%eax,%eax
  40166a:	89 44 24 04          	mov    %eax,0x4(%rsp)
  40166e:	8b 44 24 18          	mov    0x18(%rsp),%eax
  401672:	69 c0 6b 8b 00 00    	imul   $0x8b6b,%eax,%eax
  401678:	89 44 24 18          	mov    %eax,0x18(%rsp)
  40167c:	8b 04 24             	mov    (%rsp),%eax
  40167f:	69 c0 04 ab 00 00    	imul   $0xab04,%eax,%eax
  401685:	89 04 24             	mov    %eax,(%rsp)
  401688:	8b 44 24 1c          	mov    0x1c(%rsp),%eax
  40168c:	69 c0 d6 55 00 00    	imul   $0x55d6,%eax,%eax
  401692:	89 44 24 1c          	mov    %eax,0x1c(%rsp)
  401696:	8b 44 24 04          	mov    0x4(%rsp),%eax
  40169a:	69 c0 b8 e5 00 00    	imul   $0xe5b8,%eax,%eax
  4016a0:	89 44 24 04          	mov    %eax,0x4(%rsp)
  4016a4:	8b 04 24             	mov    (%rsp),%eax
  4016a7:	69 c0 ac ea 00 00    	imul   $0xeaac,%eax,%eax
  4016ad:	89 04 24             	mov    %eax,(%rsp)
  4016b0:	8b 44 24 20          	mov    0x20(%rsp),%eax
  4016b4:	69 c0 47 70 00 00    	imul   $0x7047,%eax,%eax
  4016ba:	89 44 24 20          	mov    %eax,0x20(%rsp)
  4016be:	8b 04 24             	mov    (%rsp),%eax
  4016c1:	69 c0 96 71 00 00    	imul   $0x7196,%eax,%eax
  4016c7:	89 04 24             	mov    %eax,(%rsp)
  4016ca:	8b 44 24 08          	mov    0x8(%rsp),%eax
  4016ce:	69 c0 86 a5 00 00    	imul   $0xa586,%eax,%eax
  4016d4:	89 44 24 08          	mov    %eax,0x8(%rsp)
  4016d8:	8b 44 24 14          	mov    0x14(%rsp),%eax
  4016dc:	69 c0 52 f6 00 00    	imul   $0xf652,%eax,%eax
  4016e2:	89 44 24 14          	mov    %eax,0x14(%rsp)
  4016e6:	8b 44 24 10          	mov    0x10(%rsp),%eax
  4016ea:	69 c0 9a 6c 00 00    	imul   $0x6c9a,%eax,%eax
  4016f0:	89 44 24 10          	mov    %eax,0x10(%rsp)
  4016f4:	8b 44 24 14          	mov    0x14(%rsp),%eax
  4016f8:	69 c0 0a c9 00 00    	imul   $0xc90a,%eax,%eax
  4016fe:	89 44 24 14          	mov    %eax,0x14(%rsp)
  401702:	8b 44 24 18          	mov    0x18(%rsp),%eax
  401706:	69 c0 29 c2 00 00    	imul   $0xc229,%eax,%eax
  40170c:	89 44 24 18          	mov    %eax,0x18(%rsp)
  401710:	8b 44 24 1c          	mov    0x1c(%rsp),%eax
  401714:	69 c0 87 63 00 00    	imul   $0x6387,%eax,%eax
  40171a:	89 44 24 1c          	mov    %eax,0x1c(%rsp)
  40171e:	8b 44 24 18          	mov    0x18(%rsp),%eax
  401722:	69 c0 0a 5c 00 00    	imul   $0x5c0a,%eax,%eax
  401728:	89 44 24 18          	mov    %eax,0x18(%rsp)
  40172c:	8b 44 24 18          	mov    0x18(%rsp),%eax
  401730:	69 c0 16 47 00 00    	imul   $0x4716,%eax,%eax
  401736:	89 44 24 18          	mov    %eax,0x18(%rsp)
  40173a:	8b 44 24 24          	mov    0x24(%rsp),%eax
  40173e:	69 c0 4b 7e 00 00    	imul   $0x7e4b,%eax,%eax
  401744:	89 44 24 24          	mov    %eax,0x24(%rsp)
  401748:	8b 44 24 04          	mov    0x4(%rsp),%eax
  40174c:	69 c0 a6 71 00 00    	imul   $0x71a6,%eax,%eax
  401752:	89 44 24 04          	mov    %eax,0x4(%rsp)
  401756:	8b 44 24 24          	mov    0x24(%rsp),%eax
  40175a:	69 c0 a1 b3 00 00    	imul   $0xb3a1,%eax,%eax
  401760:	89 44 24 24          	mov    %eax,0x24(%rsp)
  401764:	8b 44 24 14          	mov    0x14(%rsp),%eax
  401768:	69 c0 5b 28 00 00    	imul   $0x285b,%eax,%eax
  40176e:	89 44 24 14          	mov    %eax,0x14(%rsp)
  401772:	8b 44 24 14          	mov    0x14(%rsp),%eax
  401776:	69 c0 aa 64 00 00    	imul   $0x64aa,%eax,%eax
  40177c:	89 44 24 14          	mov    %eax,0x14(%rsp)
  401780:	8b 44 24 24          	mov    0x24(%rsp),%eax
  401784:	69 c0 52 a4 00 00    	imul   $0xa452,%eax,%eax
  40178a:	89 44 24 24          	mov    %eax,0x24(%rsp)
  40178e:	8b 44 24 10          	mov    0x10(%rsp),%eax
  401792:	69 c0 14 97 00 00    	imul   $0x9714,%eax,%eax
  401798:	89 44 24 10          	mov    %eax,0x10(%rsp)
  40179c:	8b 04 24             	mov    (%rsp),%eax
  40179f:	69 c0 7b e8 00 00    	imul   $0xe87b,%eax,%eax
  4017a5:	89 04 24             	mov    %eax,(%rsp)
  4017a8:	8b 44 24 1c          	mov    0x1c(%rsp),%eax
  4017ac:	69 c0 07 43 00 00    	imul   $0x4307,%eax,%eax
  4017b2:	89 44 24 1c          	mov    %eax,0x1c(%rsp)
  4017b6:	8b 44 24 04          	mov    0x4(%rsp),%eax
  4017ba:	69 c0 a3 cf 00 00    	imul   $0xcfa3,%eax,%eax
  4017c0:	89 44 24 04          	mov    %eax,0x4(%rsp)
  4017c4:	8b 04 24             	mov    (%rsp),%eax
  4017c7:	69 c0 98 7e 00 00    	imul   $0x7e98,%eax,%eax
  4017cd:	89 04 24             	mov    %eax,(%rsp)
  4017d0:	8b 44 24 04          	mov    0x4(%rsp),%eax
  4017d4:	69 c0 ba 81 00 00    	imul   $0x81ba,%eax,%eax
  4017da:	89 44 24 04          	mov    %eax,0x4(%rsp)
  4017de:	8b 44 24 10          	mov    0x10(%rsp),%eax
  4017e2:	69 c0 42 9c 00 00    	imul   $0x9c42,%eax,%eax
  4017e8:	89 44 24 10          	mov    %eax,0x10(%rsp)
  4017ec:	8b 44 24 18          	mov    0x18(%rsp),%eax
  4017f0:	69 c0 dc f3 00 00    	imul   $0xf3dc,%eax,%eax
  4017f6:	89 44 24 18          	mov    %eax,0x18(%rsp)
  4017fa:	8b 04 24             	mov    (%rsp),%eax
  4017fd:	69 c0 1e ed 00 00    	imul   $0xed1e,%eax,%eax
  401803:	89 04 24             	mov    %eax,(%rsp)
  401806:	8b 44 24 0c          	mov    0xc(%rsp),%eax
  40180a:	69 c0 3d 29 00 00    	imul   $0x293d,%eax,%eax
  401810:	89 44 24 0c          	mov    %eax,0xc(%rsp)
  401814:	ba 00 00 00 00       	mov    $0x0,%edx
  401819:	b8 00 00 00 00       	mov    $0x0,%eax
  40181e:	eb 0a                	jmp    40182a <scramble+0x4eb>
  401820:	89 d1                	mov    %edx,%ecx
  401822:	8b 0c 8c             	mov    (%rsp,%rcx,4),%ecx
  401825:	01 c8                	add    %ecx,%eax
  401827:	83 c2 01             	add    $0x1,%edx
  40182a:	83 fa 09             	cmp    $0x9,%edx
  40182d:	76 f1                	jbe    401820 <scramble+0x4e1>
  40182f:	48 8b 74 24 28       	mov    0x28(%rsp),%rsi
  401834:	64 48 33 34 25 28 00 	xor    %fs:0x28,%rsi
  40183b:	00 00 
  40183d:	75 05                	jne    401844 <scramble+0x505>
  40183f:	48 83 c4 38          	add    $0x38,%rsp
  401843:	c3                   	retq   
  401844:	e8 97 f4 ff ff       	callq  400ce0 <__stack_chk_fail@plt>

0000000000401849 <getbuf>:
  401849:	48 83 ec 18          	sub    $0x18,%rsp
  40184d:	48 89 e7             	mov    %rsp,%rdi
  401850:	e8 9e 03 00 00       	callq  401bf3 <Gets>
  401855:	b8 01 00 00 00       	mov    $0x1,%eax
  40185a:	48 83 c4 18          	add    $0x18,%rsp
  40185e:	c3                   	retq   

000000000040185f <touch1>:
  40185f:	48 83 ec 08          	sub    $0x8,%rsp
  401863:	c7 05 8f 3c 20 00 01 	movl   $0x1,0x203c8f(%rip)        # 6054fc <vlevel>
  40186a:	00 00 00 
  40186d:	bf da 32 40 00       	mov    $0x4032da,%edi
  401872:	e8 49 f4 ff ff       	callq  400cc0 <puts@plt>
  401877:	bf 01 00 00 00       	mov    $0x1,%edi
  40187c:	e8 c7 05 00 00       	callq  401e48 <validate>
  401881:	bf 00 00 00 00       	mov    $0x0,%edi
  401886:	e8 a5 f5 ff ff       	callq  400e30 <exit@plt>

000000000040188b <touch2>:
  40188b:	48 83 ec 08          	sub    $0x8,%rsp
  40188f:	89 fa                	mov    %edi,%edx
  401891:	c7 05 61 3c 20 00 02 	movl   $0x2,0x203c61(%rip)        # 6054fc <vlevel>
  401898:	00 00 00 
  40189b:	39 3d 63 3c 20 00    	cmp    %edi,0x203c63(%rip)        # 605504 <cookie>
  4018a1:	74 28                	je     4018cb <touch2+0x40>
  4018a3:	be 28 33 40 00       	mov    $0x403328,%esi
  4018a8:	bf 01 00 00 00       	mov    $0x1,%edi
  4018ad:	b8 00 00 00 00       	mov    $0x0,%eax
  4018b2:	e8 29 f5 ff ff       	callq  400de0 <__printf_chk@plt>
  4018b7:	bf 02 00 00 00       	mov    $0x2,%edi
  4018bc:	e8 4c 06 00 00       	callq  401f0d <fail>
  4018c1:	bf 00 00 00 00       	mov    $0x0,%edi
  4018c6:	e8 65 f5 ff ff       	callq  400e30 <exit@plt>
  4018cb:	be 00 33 40 00       	mov    $0x403300,%esi
  4018d0:	bf 01 00 00 00       	mov    $0x1,%edi
  4018d5:	b8 00 00 00 00       	mov    $0x0,%eax
  4018da:	e8 01 f5 ff ff       	callq  400de0 <__printf_chk@plt>
  4018df:	bf 02 00 00 00       	mov    $0x2,%edi
  4018e4:	e8 5f 05 00 00       	callq  401e48 <validate>
  4018e9:	eb d6                	jmp    4018c1 <touch2+0x36>

00000000004018eb <hexmatch>:
  4018eb:	41 54                	push   %r12
  4018ed:	55                   	push   %rbp
  4018ee:	53                   	push   %rbx
  4018ef:	48 83 c4 80          	add    $0xffffffffffffff80,%rsp
  4018f3:	89 fd                	mov    %edi,%ebp
  4018f5:	48 89 f3             	mov    %rsi,%rbx
  4018f8:	64 48 8b 04 25 28 00 	mov    %fs:0x28,%rax
  4018ff:	00 00 
  401901:	48 89 44 24 78       	mov    %rax,0x78(%rsp)
  401906:	31 c0                	xor    %eax,%eax
  401908:	e8 93 f4 ff ff       	callq  400da0 <random@plt>
  40190d:	48 89 c1             	mov    %rax,%rcx
  401910:	48 ba 0b d7 a3 70 3d 	movabs $0xa3d70a3d70a3d70b,%rdx
  401917:	0a d7 a3 
  40191a:	48 f7 ea             	imul   %rdx
  40191d:	48 01 ca             	add    %rcx,%rdx
  401920:	48 c1 fa 06          	sar    $0x6,%rdx
  401924:	48 89 c8             	mov    %rcx,%rax
  401927:	48 c1 f8 3f          	sar    $0x3f,%rax
  40192b:	48 29 c2             	sub    %rax,%rdx
  40192e:	48 8d 04 92          	lea    (%rdx,%rdx,4),%rax
  401932:	48 8d 14 80          	lea    (%rax,%rax,4),%rdx
  401936:	48 8d 04 95 00 00 00 	lea    0x0(,%rdx,4),%rax
  40193d:	00 
  40193e:	48 29 c1             	sub    %rax,%rcx
  401941:	4c 8d 24 0c          	lea    (%rsp,%rcx,1),%r12
  401945:	41 89 e8             	mov    %ebp,%r8d
  401948:	b9 f7 32 40 00       	mov    $0x4032f7,%ecx
  40194d:	48 c7 c2 ff ff ff ff 	mov    $0xffffffffffffffff,%rdx
  401954:	be 01 00 00 00       	mov    $0x1,%esi
  401959:	4c 89 e7             	mov    %r12,%rdi
  40195c:	b8 00 00 00 00       	mov    $0x0,%eax
  401961:	e8 fa f4 ff ff       	callq  400e60 <__sprintf_chk@plt>
  401966:	ba 09 00 00 00       	mov    $0x9,%edx
  40196b:	4c 89 e6             	mov    %r12,%rsi
  40196e:	48 89 df             	mov    %rbx,%rdi
  401971:	e8 2a f3 ff ff       	callq  400ca0 <strncmp@plt>
  401976:	85 c0                	test   %eax,%eax
  401978:	0f 94 c0             	sete   %al
  40197b:	48 8b 5c 24 78       	mov    0x78(%rsp),%rbx
  401980:	64 48 33 1c 25 28 00 	xor    %fs:0x28,%rbx
  401987:	00 00 
  401989:	75 0c                	jne    401997 <hexmatch+0xac>
  40198b:	0f b6 c0             	movzbl %al,%eax
  40198e:	48 83 ec 80          	sub    $0xffffffffffffff80,%rsp
  401992:	5b                   	pop    %rbx
  401993:	5d                   	pop    %rbp
  401994:	41 5c                	pop    %r12
  401996:	c3                   	retq   
  401997:	e8 44 f3 ff ff       	callq  400ce0 <__stack_chk_fail@plt>

000000000040199c <touch3>:
  40199c:	53                   	push   %rbx
  40199d:	48 89 fb             	mov    %rdi,%rbx
  4019a0:	c7 05 52 3b 20 00 03 	movl   $0x3,0x203b52(%rip)        # 6054fc <vlevel>
  4019a7:	00 00 00 
  4019aa:	48 89 fe             	mov    %rdi,%rsi
  4019ad:	8b 3d 51 3b 20 00    	mov    0x203b51(%rip),%edi        # 605504 <cookie>
  4019b3:	e8 33 ff ff ff       	callq  4018eb <hexmatch>
  4019b8:	85 c0                	test   %eax,%eax
  4019ba:	74 2b                	je     4019e7 <touch3+0x4b>
  4019bc:	48 89 da             	mov    %rbx,%rdx
  4019bf:	be 50 33 40 00       	mov    $0x403350,%esi
  4019c4:	bf 01 00 00 00       	mov    $0x1,%edi
  4019c9:	b8 00 00 00 00       	mov    $0x0,%eax
  4019ce:	e8 0d f4 ff ff       	callq  400de0 <__printf_chk@plt>
  4019d3:	bf 03 00 00 00       	mov    $0x3,%edi
  4019d8:	e8 6b 04 00 00       	callq  401e48 <validate>
  4019dd:	bf 00 00 00 00       	mov    $0x0,%edi
  4019e2:	e8 49 f4 ff ff       	callq  400e30 <exit@plt>
  4019e7:	48 89 da             	mov    %rbx,%rdx
  4019ea:	be 78 33 40 00       	mov    $0x403378,%esi
  4019ef:	bf 01 00 00 00       	mov    $0x1,%edi
  4019f4:	b8 00 00 00 00       	mov    $0x0,%eax
  4019f9:	e8 e2 f3 ff ff       	callq  400de0 <__printf_chk@plt>
  4019fe:	bf 03 00 00 00       	mov    $0x3,%edi
  401a03:	e8 05 05 00 00       	callq  401f0d <fail>
  401a08:	eb d3                	jmp    4019dd <touch3+0x41>

0000000000401a0a <test>:
  401a0a:	48 83 ec 08          	sub    $0x8,%rsp
  401a0e:	b8 00 00 00 00       	mov    $0x0,%eax
  401a13:	e8 31 fe ff ff       	callq  401849 <getbuf>
  401a18:	89 c2                	mov    %eax,%edx
  401a1a:	be a0 33 40 00       	mov    $0x4033a0,%esi
  401a1f:	bf 01 00 00 00       	mov    $0x1,%edi
  401a24:	b8 00 00 00 00       	mov    $0x0,%eax
  401a29:	e8 b2 f3 ff ff       	callq  400de0 <__printf_chk@plt>
  401a2e:	48 83 c4 08          	add    $0x8,%rsp
  401a32:	c3                   	retq   

0000000000401a33 <start_farm>:
  401a33:	b8 01 00 00 00       	mov    $0x1,%eax
  401a38:	c3                   	retq   

0000000000401a39 <getval_476>:
  401a39:	b8 11 3f 87 58       	mov    $0x58873f11,%eax
  401a3e:	c3                   	retq   

0000000000401a3f <getval_241>:
  401a3f:	b8 48 89 c7 c3       	mov    $0xc3c78948,%eax
  401a44:	c3                   	retq   

0000000000401a45 <getval_474>:
  401a45:	b8 48 89 c7 c3       	mov    $0xc3c78948,%eax
  401a4a:	c3                   	retq   

0000000000401a4b <getval_455>:
  401a4b:	b8 dd 58 c1 72       	mov    $0x72c158dd,%eax
  401a50:	c3                   	retq   

0000000000401a51 <addval_129>:
  401a51:	8d 87 48 89 c7 c7    	lea    -0x383876b8(%rdi),%eax
  401a57:	c3                   	retq   

0000000000401a58 <getval_156>:
  401a58:	b8 58 90 90 c1       	mov    $0xc1909058,%eax
  401a5d:	c3                   	retq   

0000000000401a5e <addval_238>:
  401a5e:	8d 87 58 90 90 c3    	lea    -0x3c6f6fa8(%rdi),%eax
  401a64:	c3                   	retq   

0000000000401a65 <setval_306>:
  401a65:	c7 07 48 89 c7 94    	movl   $0x94c78948,(%rdi)
  401a6b:	c3                   	retq   

0000000000401a6c <mid_farm>:
  401a6c:	b8 01 00 00 00       	mov    $0x1,%eax
  401a71:	c3                   	retq   

0000000000401a72 <add_xy>:
  401a72:	48 8d 04 37          	lea    (%rdi,%rsi,1),%rax
  401a76:	c3                   	retq   

0000000000401a77 <setval_283>:
  401a77:	c7 07 89 c2 a4 c9    	movl   $0xc9a4c289,(%rdi)
  401a7d:	c3                   	retq   

0000000000401a7e <addval_292>:
  401a7e:	8d 87 99 c2 84 db    	lea    -0x247b3d67(%rdi),%eax
  401a84:	c3                   	retq   

0000000000401a85 <setval_435>:
  401a85:	c7 07 8d d1 38 c0    	movl   $0xc038d18d,(%rdi)
  401a8b:	c3                   	retq   

0000000000401a8c <getval_285>:
  401a8c:	b8 89 ce 18 c0       	mov    $0xc018ce89,%eax
  401a91:	c3                   	retq   

0000000000401a92 <addval_339>:
  401a92:	8d 87 48 89 e0 92    	lea    -0x6d1f76b8(%rdi),%eax
  401a98:	c3                   	retq   

0000000000401a99 <setval_116>:
  401a99:	c7 07 89 ce 00 c9    	movl   $0xc900ce89,(%rdi)
  401a9f:	c3                   	retq   

0000000000401aa0 <setval_438>:
  401aa0:	c7 07 a9 d1 c3 9a    	movl   $0x9ac3d1a9,(%rdi)
  401aa6:	c3                   	retq   

0000000000401aa7 <getval_294>:
  401aa7:	b8 48 81 e0 c3       	mov    $0xc3e08148,%eax
  401aac:	c3                   	retq   

0000000000401aad <setval_248>:
  401aad:	c7 07 89 d1 c7 4e    	movl   $0x4ec7d189,(%rdi)
  401ab3:	c3                   	retq   

0000000000401ab4 <getval_181>:
  401ab4:	b8 c8 89 e0 c3       	mov    $0xc3e089c8,%eax
  401ab9:	c3                   	retq   

0000000000401aba <addval_212>:
  401aba:	8d 87 e5 89 d1 c7    	lea    -0x382e761b(%rdi),%eax
  401ac0:	c3                   	retq   

0000000000401ac1 <addval_376>:
  401ac1:	8d 87 89 ce 08 d2    	lea    -0x2df73177(%rdi),%eax
  401ac7:	c3                   	retq   

0000000000401ac8 <getval_284>:
  401ac8:	b8 89 d1 28 db       	mov    $0xdb28d189,%eax
  401acd:	c3                   	retq   

0000000000401ace <addval_106>:
  401ace:	8d 87 71 48 89 e0    	lea    -0x1f76b78f(%rdi),%eax
  401ad4:	c3                   	retq   

0000000000401ad5 <setval_232>:
  401ad5:	c7 07 49 89 e0 90    	movl   $0x90e08949,(%rdi)
  401adb:	c3                   	retq   

0000000000401adc <setval_450>:
  401adc:	c7 07 48 89 e0 94    	movl   $0x94e08948,(%rdi)
  401ae2:	c3                   	retq   

0000000000401ae3 <setval_242>:
  401ae3:	c7 07 89 ce 84 c0    	movl   $0xc084ce89,(%rdi)
  401ae9:	c3                   	retq   

0000000000401aea <setval_451>:
  401aea:	c7 07 89 d1 20 db    	movl   $0xdb20d189,(%rdi)
  401af0:	c3                   	retq   

0000000000401af1 <addval_468>:
  401af1:	8d 87 89 d1 08 d2    	lea    -0x2df72e77(%rdi),%eax
  401af7:	c3                   	retq   

0000000000401af8 <getval_153>:
  401af8:	b8 48 89 e0 91       	mov    $0x91e08948,%eax
  401afd:	c3                   	retq   

0000000000401afe <setval_278>:
  401afe:	c7 07 a9 c2 84 c0    	movl   $0xc084c2a9,(%rdi)
  401b04:	c3                   	retq   

0000000000401b05 <setval_211>:
  401b05:	c7 07 a9 ce 08 d2    	movl   $0xd208cea9,(%rdi)
  401b0b:	c3                   	retq   

0000000000401b0c <setval_166>:
  401b0c:	c7 07 a9 ce 84 d2    	movl   $0xd284cea9,(%rdi)
  401b12:	c3                   	retq   

0000000000401b13 <setval_459>:
  401b13:	c7 07 a9 d1 20 d2    	movl   $0xd220d1a9,(%rdi)
  401b19:	c3                   	retq   

0000000000401b1a <getval_480>:
  401b1a:	b8 89 c2 18 d2       	mov    $0xd218c289,%eax
  401b1f:	c3                   	retq   

0000000000401b20 <getval_397>:
  401b20:	b8 89 ce 00 c0       	mov    $0xc000ce89,%eax
  401b25:	c3                   	retq   

0000000000401b26 <getval_303>:
  401b26:	b8 2f 89 ce 94       	mov    $0x94ce892f,%eax
  401b2b:	c3                   	retq   

0000000000401b2c <addval_204>:
  401b2c:	8d 87 89 c2 20 d2    	lea    -0x2ddf3d77(%rdi),%eax
  401b32:	c3                   	retq   

0000000000401b33 <addval_209>:
  401b33:	8d 87 89 c2 84 c0    	lea    -0x3f7b3d77(%rdi),%eax
  401b39:	c3                   	retq   

0000000000401b3a <getval_494>:
  401b3a:	b8 48 89 e0 90       	mov    $0x90e08948,%eax
  401b3f:	c3                   	retq   

0000000000401b40 <getval_326>:
  401b40:	b8 81 c2 90 c3       	mov    $0xc390c281,%eax
  401b45:	c3                   	retq   

0000000000401b46 <setval_227>:
  401b46:	c7 07 81 c2 08 c9    	movl   $0xc908c281,(%rdi)
  401b4c:	c3                   	retq   

0000000000401b4d <end_farm>:
  401b4d:	b8 01 00 00 00       	mov    $0x1,%eax
  401b52:	c3                   	retq   

0000000000401b53 <save_char>:
  401b53:	8b 05 cb 45 20 00    	mov    0x2045cb(%rip),%eax        # 606124 <gets_cnt>
  401b59:	3d ff 03 00 00       	cmp    $0x3ff,%eax
  401b5e:	7f 49                	jg     401ba9 <save_char+0x56>
  401b60:	89 f9                	mov    %edi,%ecx
  401b62:	c0 e9 04             	shr    $0x4,%cl
  401b65:	8d 14 40             	lea    (%rax,%rax,2),%edx
  401b68:	83 e1 0f             	and    $0xf,%ecx
  401b6b:	0f b6 b1 c0 36 40 00 	movzbl 0x4036c0(%rcx),%esi
  401b72:	48 63 ca             	movslq %edx,%rcx
  401b75:	40 88 b1 20 55 60 00 	mov    %sil,0x605520(%rcx)
  401b7c:	8d 4a 01             	lea    0x1(%rdx),%ecx
  401b7f:	83 e7 0f             	and    $0xf,%edi
  401b82:	0f b6 b7 c0 36 40 00 	movzbl 0x4036c0(%rdi),%esi
  401b89:	48 63 c9             	movslq %ecx,%rcx
  401b8c:	40 88 b1 20 55 60 00 	mov    %sil,0x605520(%rcx)
  401b93:	83 c2 02             	add    $0x2,%edx
  401b96:	48 63 d2             	movslq %edx,%rdx
  401b99:	c6 82 20 55 60 00 20 	movb   $0x20,0x605520(%rdx)
  401ba0:	83 c0 01             	add    $0x1,%eax
  401ba3:	89 05 7b 45 20 00    	mov    %eax,0x20457b(%rip)        # 606124 <gets_cnt>
  401ba9:	f3 c3                	repz retq 

0000000000401bab <save_term>:
  401bab:	8b 05 73 45 20 00    	mov    0x204573(%rip),%eax        # 606124 <gets_cnt>
  401bb1:	8d 04 40             	lea    (%rax,%rax,2),%eax
  401bb4:	48 98                	cltq   
  401bb6:	c6 80 20 55 60 00 00 	movb   $0x0,0x605520(%rax)
  401bbd:	c3                   	retq   

0000000000401bbe <check_fail>:
  401bbe:	48 83 ec 08          	sub    $0x8,%rsp
  401bc2:	0f be 15 5f 45 20 00 	movsbl 0x20455f(%rip),%edx        # 606128 <target_prefix>
  401bc9:	41 b8 20 55 60 00    	mov    $0x605520,%r8d
  401bcf:	8b 0d 23 39 20 00    	mov    0x203923(%rip),%ecx        # 6054f8 <check_level>
  401bd5:	be c3 33 40 00       	mov    $0x4033c3,%esi
  401bda:	bf 01 00 00 00       	mov    $0x1,%edi
  401bdf:	b8 00 00 00 00       	mov    $0x0,%eax
  401be4:	e8 f7 f1 ff ff       	callq  400de0 <__printf_chk@plt>
  401be9:	bf 01 00 00 00       	mov    $0x1,%edi
  401bee:	e8 3d f2 ff ff       	callq  400e30 <exit@plt>

0000000000401bf3 <Gets>:
  401bf3:	41 54                	push   %r12
  401bf5:	55                   	push   %rbp
  401bf6:	53                   	push   %rbx
  401bf7:	49 89 fc             	mov    %rdi,%r12
  401bfa:	c7 05 20 45 20 00 00 	movl   $0x0,0x204520(%rip)        # 606124 <gets_cnt>
  401c01:	00 00 00 
  401c04:	48 89 fb             	mov    %rdi,%rbx
  401c07:	eb 11                	jmp    401c1a <Gets+0x27>
  401c09:	48 8d 6b 01          	lea    0x1(%rbx),%rbp
  401c0d:	88 03                	mov    %al,(%rbx)
  401c0f:	0f b6 f8             	movzbl %al,%edi
  401c12:	e8 3c ff ff ff       	callq  401b53 <save_char>
  401c17:	48 89 eb             	mov    %rbp,%rbx
  401c1a:	48 8b 3d cf 38 20 00 	mov    0x2038cf(%rip),%rdi        # 6054f0 <infile>
  401c21:	e8 8a f1 ff ff       	callq  400db0 <_IO_getc@plt>
  401c26:	83 f8 ff             	cmp    $0xffffffff,%eax
  401c29:	74 05                	je     401c30 <Gets+0x3d>
  401c2b:	83 f8 0a             	cmp    $0xa,%eax
  401c2e:	75 d9                	jne    401c09 <Gets+0x16>
  401c30:	c6 03 00             	movb   $0x0,(%rbx)
  401c33:	b8 00 00 00 00       	mov    $0x0,%eax
  401c38:	e8 6e ff ff ff       	callq  401bab <save_term>
  401c3d:	4c 89 e0             	mov    %r12,%rax
  401c40:	5b                   	pop    %rbx
  401c41:	5d                   	pop    %rbp
  401c42:	41 5c                	pop    %r12
  401c44:	c3                   	retq   

0000000000401c45 <notify_server>:
  401c45:	55                   	push   %rbp
  401c46:	53                   	push   %rbx
  401c47:	48 81 ec 18 40 00 00 	sub    $0x4018,%rsp
  401c4e:	64 48 8b 04 25 28 00 	mov    %fs:0x28,%rax
  401c55:	00 00 
  401c57:	48 89 84 24 08 40 00 	mov    %rax,0x4008(%rsp)
  401c5e:	00 
  401c5f:	31 c0                	xor    %eax,%eax
  401c61:	83 3d a0 38 20 00 00 	cmpl   $0x0,0x2038a0(%rip)        # 605508 <is_checker>
  401c68:	0f 85 c9 00 00 00    	jne    401d37 <notify_server+0xf2>
  401c6e:	89 fb                	mov    %edi,%ebx
  401c70:	8b 05 ae 44 20 00    	mov    0x2044ae(%rip),%eax        # 606124 <gets_cnt>
  401c76:	83 c0 64             	add    $0x64,%eax
  401c79:	3d 00 20 00 00       	cmp    $0x2000,%eax
  401c7e:	0f 8f d4 00 00 00    	jg     401d58 <notify_server+0x113>
  401c84:	0f be 05 9d 44 20 00 	movsbl 0x20449d(%rip),%eax        # 606128 <target_prefix>
  401c8b:	83 3d f6 37 20 00 00 	cmpl   $0x0,0x2037f6(%rip)        # 605488 <notify>
  401c92:	0f 84 de 00 00 00    	je     401d76 <notify_server+0x131>
  401c98:	8b 15 62 38 20 00    	mov    0x203862(%rip),%edx        # 605500 <authkey>
  401c9e:	85 db                	test   %ebx,%ebx
  401ca0:	0f 84 da 00 00 00    	je     401d80 <notify_server+0x13b>
  401ca6:	bd d9 33 40 00       	mov    $0x4033d9,%ebp
  401cab:	68 20 55 60 00       	pushq  $0x605520
  401cb0:	56                   	push   %rsi
  401cb1:	50                   	push   %rax
  401cb2:	52                   	push   %rdx
  401cb3:	49 89 e9             	mov    %rbp,%r9
  401cb6:	44 8b 05 8b 34 20 00 	mov    0x20348b(%rip),%r8d        # 605148 <target_id>
  401cbd:	b9 e3 33 40 00       	mov    $0x4033e3,%ecx
  401cc2:	ba 00 20 00 00       	mov    $0x2000,%edx
  401cc7:	be 01 00 00 00       	mov    $0x1,%esi
  401ccc:	48 8d 7c 24 20       	lea    0x20(%rsp),%rdi
  401cd1:	b8 00 00 00 00       	mov    $0x0,%eax
  401cd6:	e8 85 f1 ff ff       	callq  400e60 <__sprintf_chk@plt>
  401cdb:	48 83 c4 20          	add    $0x20,%rsp
  401cdf:	83 3d a2 37 20 00 00 	cmpl   $0x0,0x2037a2(%rip)        # 605488 <notify>
  401ce6:	0f 84 d3 00 00 00    	je     401dbf <notify_server+0x17a>
  401cec:	85 db                	test   %ebx,%ebx
  401cee:	0f 84 bc 00 00 00    	je     401db0 <notify_server+0x16b>
  401cf4:	4c 8d 8c 24 00 20 00 	lea    0x2000(%rsp),%r9
  401cfb:	00 
  401cfc:	41 b8 00 00 00 00    	mov    $0x0,%r8d
  401d02:	48 89 e1             	mov    %rsp,%rcx
  401d05:	48 8b 15 44 34 20 00 	mov    0x203444(%rip),%rdx        # 605150 <lab>
  401d0c:	48 8b 35 45 34 20 00 	mov    0x203445(%rip),%rsi        # 605158 <course>
  401d13:	48 8b 3d 26 34 20 00 	mov    0x203426(%rip),%rdi        # 605140 <user_id>
  401d1a:	e8 31 11 00 00       	callq  402e50 <driver_post>
  401d1f:	85 c0                	test   %eax,%eax
  401d21:	78 67                	js     401d8a <notify_server+0x145>
  401d23:	bf 28 35 40 00       	mov    $0x403528,%edi
  401d28:	e8 93 ef ff ff       	callq  400cc0 <puts@plt>
  401d2d:	bf 0b 34 40 00       	mov    $0x40340b,%edi
  401d32:	e8 89 ef ff ff       	callq  400cc0 <puts@plt>
  401d37:	48 8b 84 24 08 40 00 	mov    0x4008(%rsp),%rax
  401d3e:	00 
  401d3f:	64 48 33 04 25 28 00 	xor    %fs:0x28,%rax
  401d46:	00 00 
  401d48:	0f 85 f5 00 00 00    	jne    401e43 <notify_server+0x1fe>
  401d4e:	48 81 c4 18 40 00 00 	add    $0x4018,%rsp
  401d55:	5b                   	pop    %rbx
  401d56:	5d                   	pop    %rbp
  401d57:	c3                   	retq   
  401d58:	be f8 34 40 00       	mov    $0x4034f8,%esi
  401d5d:	bf 01 00 00 00       	mov    $0x1,%edi
  401d62:	b8 00 00 00 00       	mov    $0x0,%eax
  401d67:	e8 74 f0 ff ff       	callq  400de0 <__printf_chk@plt>
  401d6c:	bf 01 00 00 00       	mov    $0x1,%edi
  401d71:	e8 ba f0 ff ff       	callq  400e30 <exit@plt>
  401d76:	ba ff ff ff ff       	mov    $0xffffffff,%edx
  401d7b:	e9 1e ff ff ff       	jmpq   401c9e <notify_server+0x59>
  401d80:	bd de 33 40 00       	mov    $0x4033de,%ebp
  401d85:	e9 21 ff ff ff       	jmpq   401cab <notify_server+0x66>
  401d8a:	48 8d 94 24 00 20 00 	lea    0x2000(%rsp),%rdx
  401d91:	00 
  401d92:	be ff 33 40 00       	mov    $0x4033ff,%esi
  401d97:	bf 01 00 00 00       	mov    $0x1,%edi
  401d9c:	b8 00 00 00 00       	mov    $0x0,%eax
  401da1:	e8 3a f0 ff ff       	callq  400de0 <__printf_chk@plt>
  401da6:	bf 01 00 00 00       	mov    $0x1,%edi
  401dab:	e8 80 f0 ff ff       	callq  400e30 <exit@plt>
  401db0:	bf 15 34 40 00       	mov    $0x403415,%edi
  401db5:	e8 06 ef ff ff       	callq  400cc0 <puts@plt>
  401dba:	e9 78 ff ff ff       	jmpq   401d37 <notify_server+0xf2>
  401dbf:	48 89 ea             	mov    %rbp,%rdx
  401dc2:	be 60 35 40 00       	mov    $0x403560,%esi
  401dc7:	bf 01 00 00 00       	mov    $0x1,%edi
  401dcc:	b8 00 00 00 00       	mov    $0x0,%eax
  401dd1:	e8 0a f0 ff ff       	callq  400de0 <__printf_chk@plt>
  401dd6:	48 8b 15 63 33 20 00 	mov    0x203363(%rip),%rdx        # 605140 <user_id>
  401ddd:	be 1c 34 40 00       	mov    $0x40341c,%esi
  401de2:	bf 01 00 00 00       	mov    $0x1,%edi
  401de7:	b8 00 00 00 00       	mov    $0x0,%eax
  401dec:	e8 ef ef ff ff       	callq  400de0 <__printf_chk@plt>
  401df1:	48 8b 15 60 33 20 00 	mov    0x203360(%rip),%rdx        # 605158 <course>
  401df8:	be 29 34 40 00       	mov    $0x403429,%esi
  401dfd:	bf 01 00 00 00       	mov    $0x1,%edi
  401e02:	b8 00 00 00 00       	mov    $0x0,%eax
  401e07:	e8 d4 ef ff ff       	callq  400de0 <__printf_chk@plt>
  401e0c:	48 8b 15 3d 33 20 00 	mov    0x20333d(%rip),%rdx        # 605150 <lab>
  401e13:	be 35 34 40 00       	mov    $0x403435,%esi
  401e18:	bf 01 00 00 00       	mov    $0x1,%edi
  401e1d:	b8 00 00 00 00       	mov    $0x0,%eax
  401e22:	e8 b9 ef ff ff       	callq  400de0 <__printf_chk@plt>
  401e27:	48 89 e2             	mov    %rsp,%rdx
  401e2a:	be 3e 34 40 00       	mov    $0x40343e,%esi
  401e2f:	bf 01 00 00 00       	mov    $0x1,%edi
  401e34:	b8 00 00 00 00       	mov    $0x0,%eax
  401e39:	e8 a2 ef ff ff       	callq  400de0 <__printf_chk@plt>
  401e3e:	e9 f4 fe ff ff       	jmpq   401d37 <notify_server+0xf2>
  401e43:	e8 98 ee ff ff       	callq  400ce0 <__stack_chk_fail@plt>

0000000000401e48 <validate>:
  401e48:	53                   	push   %rbx
  401e49:	89 fb                	mov    %edi,%ebx
  401e4b:	83 3d b6 36 20 00 00 	cmpl   $0x0,0x2036b6(%rip)        # 605508 <is_checker>
  401e52:	74 6b                	je     401ebf <validate+0x77>
  401e54:	39 3d a2 36 20 00    	cmp    %edi,0x2036a2(%rip)        # 6054fc <vlevel>
  401e5a:	75 2f                	jne    401e8b <validate+0x43>
  401e5c:	8b 15 96 36 20 00    	mov    0x203696(%rip),%edx        # 6054f8 <check_level>
  401e62:	39 fa                	cmp    %edi,%edx
  401e64:	75 39                	jne    401e9f <validate+0x57>
  401e66:	0f be 15 bb 42 20 00 	movsbl 0x2042bb(%rip),%edx        # 606128 <target_prefix>
  401e6d:	41 b8 20 55 60 00    	mov    $0x605520,%r8d
  401e73:	89 f9                	mov    %edi,%ecx
  401e75:	be 68 34 40 00       	mov    $0x403468,%esi
  401e7a:	bf 01 00 00 00       	mov    $0x1,%edi
  401e7f:	b8 00 00 00 00       	mov    $0x0,%eax
  401e84:	e8 57 ef ff ff       	callq  400de0 <__printf_chk@plt>
  401e89:	5b                   	pop    %rbx
  401e8a:	c3                   	retq   
  401e8b:	bf 4a 34 40 00       	mov    $0x40344a,%edi
  401e90:	e8 2b ee ff ff       	callq  400cc0 <puts@plt>
  401e95:	b8 00 00 00 00       	mov    $0x0,%eax
  401e9a:	e8 1f fd ff ff       	callq  401bbe <check_fail>
  401e9f:	89 f9                	mov    %edi,%ecx
  401ea1:	be 88 35 40 00       	mov    $0x403588,%esi
  401ea6:	bf 01 00 00 00       	mov    $0x1,%edi
  401eab:	b8 00 00 00 00       	mov    $0x0,%eax
  401eb0:	e8 2b ef ff ff       	callq  400de0 <__printf_chk@plt>
  401eb5:	b8 00 00 00 00       	mov    $0x0,%eax
  401eba:	e8 ff fc ff ff       	callq  401bbe <check_fail>
  401ebf:	39 3d 37 36 20 00    	cmp    %edi,0x203637(%rip)        # 6054fc <vlevel>
  401ec5:	74 18                	je     401edf <validate+0x97>
  401ec7:	bf 4a 34 40 00       	mov    $0x40344a,%edi
  401ecc:	e8 ef ed ff ff       	callq  400cc0 <puts@plt>
  401ed1:	89 de                	mov    %ebx,%esi
  401ed3:	bf 00 00 00 00       	mov    $0x0,%edi
  401ed8:	e8 68 fd ff ff       	callq  401c45 <notify_server>
  401edd:	eb aa                	jmp    401e89 <validate+0x41>
  401edf:	0f be 0d 42 42 20 00 	movsbl 0x204242(%rip),%ecx        # 606128 <target_prefix>
  401ee6:	89 fa                	mov    %edi,%edx
  401ee8:	be b0 35 40 00       	mov    $0x4035b0,%esi
  401eed:	bf 01 00 00 00       	mov    $0x1,%edi
  401ef2:	b8 00 00 00 00       	mov    $0x0,%eax
  401ef7:	e8 e4 ee ff ff       	callq  400de0 <__printf_chk@plt>
  401efc:	89 de                	mov    %ebx,%esi
  401efe:	bf 01 00 00 00       	mov    $0x1,%edi
  401f03:	e8 3d fd ff ff       	callq  401c45 <notify_server>
  401f08:	e9 7c ff ff ff       	jmpq   401e89 <validate+0x41>

0000000000401f0d <fail>:
  401f0d:	48 83 ec 08          	sub    $0x8,%rsp
  401f11:	83 3d f0 35 20 00 00 	cmpl   $0x0,0x2035f0(%rip)        # 605508 <is_checker>
  401f18:	75 11                	jne    401f2b <fail+0x1e>
  401f1a:	89 fe                	mov    %edi,%esi
  401f1c:	bf 00 00 00 00       	mov    $0x0,%edi
  401f21:	e8 1f fd ff ff       	callq  401c45 <notify_server>
  401f26:	48 83 c4 08          	add    $0x8,%rsp
  401f2a:	c3                   	retq   
  401f2b:	b8 00 00 00 00       	mov    $0x0,%eax
  401f30:	e8 89 fc ff ff       	callq  401bbe <check_fail>

0000000000401f35 <bushandler>:
  401f35:	48 83 ec 08          	sub    $0x8,%rsp
  401f39:	83 3d c8 35 20 00 00 	cmpl   $0x0,0x2035c8(%rip)        # 605508 <is_checker>
  401f40:	74 14                	je     401f56 <bushandler+0x21>
  401f42:	bf 7d 34 40 00       	mov    $0x40347d,%edi
  401f47:	e8 74 ed ff ff       	callq  400cc0 <puts@plt>
  401f4c:	b8 00 00 00 00       	mov    $0x0,%eax
  401f51:	e8 68 fc ff ff       	callq  401bbe <check_fail>
  401f56:	bf e8 35 40 00       	mov    $0x4035e8,%edi
  401f5b:	e8 60 ed ff ff       	callq  400cc0 <puts@plt>
  401f60:	bf 87 34 40 00       	mov    $0x403487,%edi
  401f65:	e8 56 ed ff ff       	callq  400cc0 <puts@plt>
  401f6a:	be 00 00 00 00       	mov    $0x0,%esi
  401f6f:	bf 00 00 00 00       	mov    $0x0,%edi
  401f74:	e8 cc fc ff ff       	callq  401c45 <notify_server>
  401f79:	bf 01 00 00 00       	mov    $0x1,%edi
  401f7e:	e8 ad ee ff ff       	callq  400e30 <exit@plt>

0000000000401f83 <seghandler>:
  401f83:	48 83 ec 08          	sub    $0x8,%rsp
  401f87:	83 3d 7a 35 20 00 00 	cmpl   $0x0,0x20357a(%rip)        # 605508 <is_checker>
  401f8e:	74 14                	je     401fa4 <seghandler+0x21>
  401f90:	bf 9d 34 40 00       	mov    $0x40349d,%edi
  401f95:	e8 26 ed ff ff       	callq  400cc0 <puts@plt>
  401f9a:	b8 00 00 00 00       	mov    $0x0,%eax
  401f9f:	e8 1a fc ff ff       	callq  401bbe <check_fail>
  401fa4:	bf 08 36 40 00       	mov    $0x403608,%edi
  401fa9:	e8 12 ed ff ff       	callq  400cc0 <puts@plt>
  401fae:	bf 87 34 40 00       	mov    $0x403487,%edi
  401fb3:	e8 08 ed ff ff       	callq  400cc0 <puts@plt>
  401fb8:	be 00 00 00 00       	mov    $0x0,%esi
  401fbd:	bf 00 00 00 00       	mov    $0x0,%edi
  401fc2:	e8 7e fc ff ff       	callq  401c45 <notify_server>
  401fc7:	bf 01 00 00 00       	mov    $0x1,%edi
  401fcc:	e8 5f ee ff ff       	callq  400e30 <exit@plt>

0000000000401fd1 <illegalhandler>:
  401fd1:	48 83 ec 08          	sub    $0x8,%rsp
  401fd5:	83 3d 2c 35 20 00 00 	cmpl   $0x0,0x20352c(%rip)        # 605508 <is_checker>
  401fdc:	74 14                	je     401ff2 <illegalhandler+0x21>
  401fde:	bf b0 34 40 00       	mov    $0x4034b0,%edi
  401fe3:	e8 d8 ec ff ff       	callq  400cc0 <puts@plt>
  401fe8:	b8 00 00 00 00       	mov    $0x0,%eax
  401fed:	e8 cc fb ff ff       	callq  401bbe <check_fail>
  401ff2:	bf 30 36 40 00       	mov    $0x403630,%edi
  401ff7:	e8 c4 ec ff ff       	callq  400cc0 <puts@plt>
  401ffc:	bf 87 34 40 00       	mov    $0x403487,%edi
  402001:	e8 ba ec ff ff       	callq  400cc0 <puts@plt>
  402006:	be 00 00 00 00       	mov    $0x0,%esi
  40200b:	bf 00 00 00 00       	mov    $0x0,%edi
  402010:	e8 30 fc ff ff       	callq  401c45 <notify_server>
  402015:	bf 01 00 00 00       	mov    $0x1,%edi
  40201a:	e8 11 ee ff ff       	callq  400e30 <exit@plt>

000000000040201f <sigalrmhandler>:
  40201f:	48 83 ec 08          	sub    $0x8,%rsp
  402023:	83 3d de 34 20 00 00 	cmpl   $0x0,0x2034de(%rip)        # 605508 <is_checker>
  40202a:	74 14                	je     402040 <sigalrmhandler+0x21>
  40202c:	bf c4 34 40 00       	mov    $0x4034c4,%edi
  402031:	e8 8a ec ff ff       	callq  400cc0 <puts@plt>
  402036:	b8 00 00 00 00       	mov    $0x0,%eax
  40203b:	e8 7e fb ff ff       	callq  401bbe <check_fail>
  402040:	ba 05 00 00 00       	mov    $0x5,%edx
  402045:	be 60 36 40 00       	mov    $0x403660,%esi
  40204a:	bf 01 00 00 00       	mov    $0x1,%edi
  40204f:	b8 00 00 00 00       	mov    $0x0,%eax
  402054:	e8 87 ed ff ff       	callq  400de0 <__printf_chk@plt>
  402059:	be 00 00 00 00       	mov    $0x0,%esi
  40205e:	bf 00 00 00 00       	mov    $0x0,%edi
  402063:	e8 dd fb ff ff       	callq  401c45 <notify_server>
  402068:	bf 01 00 00 00       	mov    $0x1,%edi
  40206d:	e8 be ed ff ff       	callq  400e30 <exit@plt>

0000000000402072 <launch>:
  402072:	55                   	push   %rbp
  402073:	48 89 e5             	mov    %rsp,%rbp
  402076:	48 83 ec 10          	sub    $0x10,%rsp
  40207a:	48 89 fa             	mov    %rdi,%rdx
  40207d:	64 48 8b 04 25 28 00 	mov    %fs:0x28,%rax
  402084:	00 00 
  402086:	48 89 45 f8          	mov    %rax,-0x8(%rbp)
  40208a:	31 c0                	xor    %eax,%eax
  40208c:	48 8d 47 1e          	lea    0x1e(%rdi),%rax
  402090:	48 83 e0 f0          	and    $0xfffffffffffffff0,%rax
  402094:	48 29 c4             	sub    %rax,%rsp
  402097:	48 8d 7c 24 0f       	lea    0xf(%rsp),%rdi
  40209c:	48 83 e7 f0          	and    $0xfffffffffffffff0,%rdi
  4020a0:	be f4 00 00 00       	mov    $0xf4,%esi
  4020a5:	e8 56 ec ff ff       	callq  400d00 <memset@plt>
  4020aa:	48 8b 05 ef 33 20 00 	mov    0x2033ef(%rip),%rax        # 6054a0 <stdin@@GLIBC_2.2.5>
  4020b1:	48 39 05 38 34 20 00 	cmp    %rax,0x203438(%rip)        # 6054f0 <infile>
  4020b8:	74 38                	je     4020f2 <launch+0x80>
  4020ba:	c7 05 38 34 20 00 00 	movl   $0x0,0x203438(%rip)        # 6054fc <vlevel>
  4020c1:	00 00 00 
  4020c4:	b8 00 00 00 00       	mov    $0x0,%eax
  4020c9:	e8 3c f9 ff ff       	callq  401a0a <test>
  4020ce:	83 3d 33 34 20 00 00 	cmpl   $0x0,0x203433(%rip)        # 605508 <is_checker>
  4020d5:	75 31                	jne    402108 <launch+0x96>
  4020d7:	bf e4 34 40 00       	mov    $0x4034e4,%edi
  4020dc:	e8 df eb ff ff       	callq  400cc0 <puts@plt>
  4020e1:	48 8b 45 f8          	mov    -0x8(%rbp),%rax
  4020e5:	64 48 33 04 25 28 00 	xor    %fs:0x28,%rax
  4020ec:	00 00 
  4020ee:	75 2c                	jne    40211c <launch+0xaa>
  4020f0:	c9                   	leaveq 
  4020f1:	c3                   	retq   
  4020f2:	be cc 34 40 00       	mov    $0x4034cc,%esi
  4020f7:	bf 01 00 00 00       	mov    $0x1,%edi
  4020fc:	b8 00 00 00 00       	mov    $0x0,%eax
  402101:	e8 da ec ff ff       	callq  400de0 <__printf_chk@plt>
  402106:	eb b2                	jmp    4020ba <launch+0x48>
  402108:	bf d9 34 40 00       	mov    $0x4034d9,%edi
  40210d:	e8 ae eb ff ff       	callq  400cc0 <puts@plt>
  402112:	b8 00 00 00 00       	mov    $0x0,%eax
  402117:	e8 a2 fa ff ff       	callq  401bbe <check_fail>
  40211c:	e8 bf eb ff ff       	callq  400ce0 <__stack_chk_fail@plt>

0000000000402121 <stable_launch>:
  402121:	53                   	push   %rbx
  402122:	48 89 3d bf 33 20 00 	mov    %rdi,0x2033bf(%rip)        # 6054e8 <global_offset>
  402129:	41 b9 00 00 00 00    	mov    $0x0,%r9d
  40212f:	41 b8 00 00 00 00    	mov    $0x0,%r8d
  402135:	b9 32 01 00 00       	mov    $0x132,%ecx
  40213a:	ba 07 00 00 00       	mov    $0x7,%edx
  40213f:	be 00 00 10 00       	mov    $0x100000,%esi
  402144:	bf 00 60 58 55       	mov    $0x55586000,%edi
  402149:	e8 a2 eb ff ff       	callq  400cf0 <mmap@plt>
  40214e:	48 89 c3             	mov    %rax,%rbx
  402151:	48 3d 00 60 58 55    	cmp    $0x55586000,%rax
  402157:	75 43                	jne    40219c <stable_launch+0x7b>
  402159:	48 8d 90 f8 ff 0f 00 	lea    0xffff8(%rax),%rdx
  402160:	48 89 15 c9 3f 20 00 	mov    %rdx,0x203fc9(%rip)        # 606130 <stack_top>
  402167:	48 89 e0             	mov    %rsp,%rax
  40216a:	48 89 d4             	mov    %rdx,%rsp
  40216d:	48 89 c2             	mov    %rax,%rdx
  402170:	48 89 15 69 33 20 00 	mov    %rdx,0x203369(%rip)        # 6054e0 <global_save_stack>
  402177:	48 8b 3d 6a 33 20 00 	mov    0x20336a(%rip),%rdi        # 6054e8 <global_offset>
  40217e:	e8 ef fe ff ff       	callq  402072 <launch>
  402183:	48 8b 05 56 33 20 00 	mov    0x203356(%rip),%rax        # 6054e0 <global_save_stack>
  40218a:	48 89 c4             	mov    %rax,%rsp
  40218d:	be 00 00 10 00       	mov    $0x100000,%esi
  402192:	48 89 df             	mov    %rbx,%rdi
  402195:	e8 36 ec ff ff       	callq  400dd0 <munmap@plt>
  40219a:	5b                   	pop    %rbx
  40219b:	c3                   	retq   
  40219c:	be 00 00 10 00       	mov    $0x100000,%esi
  4021a1:	48 89 c7             	mov    %rax,%rdi
  4021a4:	e8 27 ec ff ff       	callq  400dd0 <munmap@plt>
  4021a9:	b9 00 60 58 55       	mov    $0x55586000,%ecx
  4021ae:	ba 98 36 40 00       	mov    $0x403698,%edx
  4021b3:	be 01 00 00 00       	mov    $0x1,%esi
  4021b8:	48 8b 3d 01 33 20 00 	mov    0x203301(%rip),%rdi        # 6054c0 <stderr@@GLIBC_2.2.5>
  4021bf:	b8 00 00 00 00       	mov    $0x0,%eax
  4021c4:	e8 87 ec ff ff       	callq  400e50 <__fprintf_chk@plt>
  4021c9:	bf 01 00 00 00       	mov    $0x1,%edi
  4021ce:	e8 5d ec ff ff       	callq  400e30 <exit@plt>

00000000004021d3 <rio_readinitb>:
  4021d3:	89 37                	mov    %esi,(%rdi)
  4021d5:	c7 47 04 00 00 00 00 	movl   $0x0,0x4(%rdi)
  4021dc:	48 8d 47 10          	lea    0x10(%rdi),%rax
  4021e0:	48 89 47 08          	mov    %rax,0x8(%rdi)
  4021e4:	c3                   	retq   

00000000004021e5 <sigalrm_handler>:
  4021e5:	48 83 ec 08          	sub    $0x8,%rsp
  4021e9:	b9 00 00 00 00       	mov    $0x0,%ecx
  4021ee:	ba d0 36 40 00       	mov    $0x4036d0,%edx
  4021f3:	be 01 00 00 00       	mov    $0x1,%esi
  4021f8:	48 8b 3d c1 32 20 00 	mov    0x2032c1(%rip),%rdi        # 6054c0 <stderr@@GLIBC_2.2.5>
  4021ff:	b8 00 00 00 00       	mov    $0x0,%eax
  402204:	e8 47 ec ff ff       	callq  400e50 <__fprintf_chk@plt>
  402209:	bf 01 00 00 00       	mov    $0x1,%edi
  40220e:	e8 1d ec ff ff       	callq  400e30 <exit@plt>

0000000000402213 <rio_writen>:
  402213:	41 55                	push   %r13
  402215:	41 54                	push   %r12
  402217:	55                   	push   %rbp
  402218:	53                   	push   %rbx
  402219:	48 83 ec 08          	sub    $0x8,%rsp
  40221d:	41 89 fc             	mov    %edi,%r12d
  402220:	48 89 f5             	mov    %rsi,%rbp
  402223:	49 89 d5             	mov    %rdx,%r13
  402226:	48 89 d3             	mov    %rdx,%rbx
  402229:	eb 06                	jmp    402231 <rio_writen+0x1e>
  40222b:	48 29 c3             	sub    %rax,%rbx
  40222e:	48 01 c5             	add    %rax,%rbp
  402231:	48 85 db             	test   %rbx,%rbx
  402234:	74 24                	je     40225a <rio_writen+0x47>
  402236:	48 89 da             	mov    %rbx,%rdx
  402239:	48 89 ee             	mov    %rbp,%rsi
  40223c:	44 89 e7             	mov    %r12d,%edi
  40223f:	e8 8c ea ff ff       	callq  400cd0 <write@plt>
  402244:	48 85 c0             	test   %rax,%rax
  402247:	7f e2                	jg     40222b <rio_writen+0x18>
  402249:	e8 32 ea ff ff       	callq  400c80 <__errno_location@plt>
  40224e:	83 38 04             	cmpl   $0x4,(%rax)
  402251:	75 15                	jne    402268 <rio_writen+0x55>
  402253:	b8 00 00 00 00       	mov    $0x0,%eax
  402258:	eb d1                	jmp    40222b <rio_writen+0x18>
  40225a:	4c 89 e8             	mov    %r13,%rax
  40225d:	48 83 c4 08          	add    $0x8,%rsp
  402261:	5b                   	pop    %rbx
  402262:	5d                   	pop    %rbp
  402263:	41 5c                	pop    %r12
  402265:	41 5d                	pop    %r13
  402267:	c3                   	retq   
  402268:	48 c7 c0 ff ff ff ff 	mov    $0xffffffffffffffff,%rax
  40226f:	eb ec                	jmp    40225d <rio_writen+0x4a>

0000000000402271 <rio_read>:
  402271:	41 55                	push   %r13
  402273:	41 54                	push   %r12
  402275:	55                   	push   %rbp
  402276:	53                   	push   %rbx
  402277:	48 83 ec 08          	sub    $0x8,%rsp
  40227b:	48 89 fb             	mov    %rdi,%rbx
  40227e:	49 89 f5             	mov    %rsi,%r13
  402281:	49 89 d4             	mov    %rdx,%r12
  402284:	eb 0a                	jmp    402290 <rio_read+0x1f>
  402286:	e8 f5 e9 ff ff       	callq  400c80 <__errno_location@plt>
  40228b:	83 38 04             	cmpl   $0x4,(%rax)
  40228e:	75 5c                	jne    4022ec <rio_read+0x7b>
  402290:	8b 6b 04             	mov    0x4(%rbx),%ebp
  402293:	85 ed                	test   %ebp,%ebp
  402295:	7f 24                	jg     4022bb <rio_read+0x4a>
  402297:	48 8d 6b 10          	lea    0x10(%rbx),%rbp
  40229b:	8b 3b                	mov    (%rbx),%edi
  40229d:	ba 00 20 00 00       	mov    $0x2000,%edx
  4022a2:	48 89 ee             	mov    %rbp,%rsi
  4022a5:	e8 86 ea ff ff       	callq  400d30 <read@plt>
  4022aa:	89 43 04             	mov    %eax,0x4(%rbx)
  4022ad:	85 c0                	test   %eax,%eax
  4022af:	78 d5                	js     402286 <rio_read+0x15>
  4022b1:	85 c0                	test   %eax,%eax
  4022b3:	74 40                	je     4022f5 <rio_read+0x84>
  4022b5:	48 89 6b 08          	mov    %rbp,0x8(%rbx)
  4022b9:	eb d5                	jmp    402290 <rio_read+0x1f>
  4022bb:	89 e8                	mov    %ebp,%eax
  4022bd:	4c 39 e0             	cmp    %r12,%rax
  4022c0:	72 03                	jb     4022c5 <rio_read+0x54>
  4022c2:	44 89 e5             	mov    %r12d,%ebp
  4022c5:	4c 63 e5             	movslq %ebp,%r12
  4022c8:	48 8b 73 08          	mov    0x8(%rbx),%rsi
  4022cc:	4c 89 e2             	mov    %r12,%rdx
  4022cf:	4c 89 ef             	mov    %r13,%rdi
  4022d2:	e8 a9 ea ff ff       	callq  400d80 <memcpy@plt>
  4022d7:	4c 01 63 08          	add    %r12,0x8(%rbx)
  4022db:	29 6b 04             	sub    %ebp,0x4(%rbx)
  4022de:	4c 89 e0             	mov    %r12,%rax
  4022e1:	48 83 c4 08          	add    $0x8,%rsp
  4022e5:	5b                   	pop    %rbx
  4022e6:	5d                   	pop    %rbp
  4022e7:	41 5c                	pop    %r12
  4022e9:	41 5d                	pop    %r13
  4022eb:	c3                   	retq   
  4022ec:	48 c7 c0 ff ff ff ff 	mov    $0xffffffffffffffff,%rax
  4022f3:	eb ec                	jmp    4022e1 <rio_read+0x70>
  4022f5:	b8 00 00 00 00       	mov    $0x0,%eax
  4022fa:	eb e5                	jmp    4022e1 <rio_read+0x70>

00000000004022fc <rio_readlineb>:
  4022fc:	41 55                	push   %r13
  4022fe:	41 54                	push   %r12
  402300:	55                   	push   %rbp
  402301:	53                   	push   %rbx
  402302:	48 83 ec 18          	sub    $0x18,%rsp
  402306:	49 89 fd             	mov    %rdi,%r13
  402309:	48 89 f5             	mov    %rsi,%rbp
  40230c:	49 89 d4             	mov    %rdx,%r12
  40230f:	64 48 8b 04 25 28 00 	mov    %fs:0x28,%rax
  402316:	00 00 
  402318:	48 89 44 24 08       	mov    %rax,0x8(%rsp)
  40231d:	31 c0                	xor    %eax,%eax
  40231f:	bb 01 00 00 00       	mov    $0x1,%ebx
  402324:	4c 39 e3             	cmp    %r12,%rbx
  402327:	73 47                	jae    402370 <rio_readlineb+0x74>
  402329:	ba 01 00 00 00       	mov    $0x1,%edx
  40232e:	48 8d 74 24 07       	lea    0x7(%rsp),%rsi
  402333:	4c 89 ef             	mov    %r13,%rdi
  402336:	e8 36 ff ff ff       	callq  402271 <rio_read>
  40233b:	83 f8 01             	cmp    $0x1,%eax
  40233e:	75 1c                	jne    40235c <rio_readlineb+0x60>
  402340:	48 8d 45 01          	lea    0x1(%rbp),%rax
  402344:	0f b6 54 24 07       	movzbl 0x7(%rsp),%edx
  402349:	88 55 00             	mov    %dl,0x0(%rbp)
  40234c:	80 7c 24 07 0a       	cmpb   $0xa,0x7(%rsp)
  402351:	74 1a                	je     40236d <rio_readlineb+0x71>
  402353:	48 83 c3 01          	add    $0x1,%rbx
  402357:	48 89 c5             	mov    %rax,%rbp
  40235a:	eb c8                	jmp    402324 <rio_readlineb+0x28>
  40235c:	85 c0                	test   %eax,%eax
  40235e:	75 32                	jne    402392 <rio_readlineb+0x96>
  402360:	48 83 fb 01          	cmp    $0x1,%rbx
  402364:	75 0a                	jne    402370 <rio_readlineb+0x74>
  402366:	b8 00 00 00 00       	mov    $0x0,%eax
  40236b:	eb 0a                	jmp    402377 <rio_readlineb+0x7b>
  40236d:	48 89 c5             	mov    %rax,%rbp
  402370:	c6 45 00 00          	movb   $0x0,0x0(%rbp)
  402374:	48 89 d8             	mov    %rbx,%rax
  402377:	48 8b 4c 24 08       	mov    0x8(%rsp),%rcx
  40237c:	64 48 33 0c 25 28 00 	xor    %fs:0x28,%rcx
  402383:	00 00 
  402385:	75 14                	jne    40239b <rio_readlineb+0x9f>
  402387:	48 83 c4 18          	add    $0x18,%rsp
  40238b:	5b                   	pop    %rbx
  40238c:	5d                   	pop    %rbp
  40238d:	41 5c                	pop    %r12
  40238f:	41 5d                	pop    %r13
  402391:	c3                   	retq   
  402392:	48 c7 c0 ff ff ff ff 	mov    $0xffffffffffffffff,%rax
  402399:	eb dc                	jmp    402377 <rio_readlineb+0x7b>
  40239b:	e8 40 e9 ff ff       	callq  400ce0 <__stack_chk_fail@plt>

00000000004023a0 <urlencode>:
  4023a0:	41 54                	push   %r12
  4023a2:	55                   	push   %rbp
  4023a3:	53                   	push   %rbx
  4023a4:	48 83 ec 10          	sub    $0x10,%rsp
  4023a8:	48 89 fb             	mov    %rdi,%rbx
  4023ab:	48 89 f5             	mov    %rsi,%rbp
  4023ae:	64 48 8b 04 25 28 00 	mov    %fs:0x28,%rax
  4023b5:	00 00 
  4023b7:	48 89 44 24 08       	mov    %rax,0x8(%rsp)
  4023bc:	31 c0                	xor    %eax,%eax
  4023be:	48 c7 c1 ff ff ff ff 	mov    $0xffffffffffffffff,%rcx
  4023c5:	f2 ae                	repnz scas %es:(%rdi),%al
  4023c7:	48 89 ce             	mov    %rcx,%rsi
  4023ca:	48 f7 d6             	not    %rsi
  4023cd:	8d 46 ff             	lea    -0x1(%rsi),%eax
  4023d0:	eb 0f                	jmp    4023e1 <urlencode+0x41>
  4023d2:	44 88 45 00          	mov    %r8b,0x0(%rbp)
  4023d6:	48 8d 6d 01          	lea    0x1(%rbp),%rbp
  4023da:	48 83 c3 01          	add    $0x1,%rbx
  4023de:	44 89 e0             	mov    %r12d,%eax
  4023e1:	44 8d 60 ff          	lea    -0x1(%rax),%r12d
  4023e5:	85 c0                	test   %eax,%eax
  4023e7:	0f 84 a6 00 00 00    	je     402493 <urlencode+0xf3>
  4023ed:	44 0f b6 03          	movzbl (%rbx),%r8d
  4023f1:	41 80 f8 2a          	cmp    $0x2a,%r8b
  4023f5:	0f 94 c2             	sete   %dl
  4023f8:	41 80 f8 2d          	cmp    $0x2d,%r8b
  4023fc:	0f 94 c0             	sete   %al
  4023ff:	08 c2                	or     %al,%dl
  402401:	75 cf                	jne    4023d2 <urlencode+0x32>
  402403:	41 80 f8 2e          	cmp    $0x2e,%r8b
  402407:	74 c9                	je     4023d2 <urlencode+0x32>
  402409:	41 80 f8 5f          	cmp    $0x5f,%r8b
  40240d:	74 c3                	je     4023d2 <urlencode+0x32>
  40240f:	41 8d 40 d0          	lea    -0x30(%r8),%eax
  402413:	3c 09                	cmp    $0x9,%al
  402415:	76 bb                	jbe    4023d2 <urlencode+0x32>
  402417:	41 8d 40 bf          	lea    -0x41(%r8),%eax
  40241b:	3c 19                	cmp    $0x19,%al
  40241d:	76 b3                	jbe    4023d2 <urlencode+0x32>
  40241f:	41 8d 40 9f          	lea    -0x61(%r8),%eax
  402423:	3c 19                	cmp    $0x19,%al
  402425:	76 ab                	jbe    4023d2 <urlencode+0x32>
  402427:	41 80 f8 20          	cmp    $0x20,%r8b
  40242b:	74 54                	je     402481 <urlencode+0xe1>
  40242d:	41 8d 40 e0          	lea    -0x20(%r8),%eax
  402431:	3c 5f                	cmp    $0x5f,%al
  402433:	0f 96 c2             	setbe  %dl
  402436:	41 80 f8 09          	cmp    $0x9,%r8b
  40243a:	0f 94 c0             	sete   %al
  40243d:	08 c2                	or     %al,%dl
  40243f:	74 4d                	je     40248e <urlencode+0xee>
  402441:	45 0f b6 c0          	movzbl %r8b,%r8d
  402445:	b9 68 37 40 00       	mov    $0x403768,%ecx
  40244a:	ba 08 00 00 00       	mov    $0x8,%edx
  40244f:	be 01 00 00 00       	mov    $0x1,%esi
  402454:	48 89 e7             	mov    %rsp,%rdi
  402457:	b8 00 00 00 00       	mov    $0x0,%eax
  40245c:	e8 ff e9 ff ff       	callq  400e60 <__sprintf_chk@plt>
  402461:	0f b6 04 24          	movzbl (%rsp),%eax
  402465:	88 45 00             	mov    %al,0x0(%rbp)
  402468:	0f b6 44 24 01       	movzbl 0x1(%rsp),%eax
  40246d:	88 45 01             	mov    %al,0x1(%rbp)
  402470:	0f b6 44 24 02       	movzbl 0x2(%rsp),%eax
  402475:	88 45 02             	mov    %al,0x2(%rbp)
  402478:	48 8d 6d 03          	lea    0x3(%rbp),%rbp
  40247c:	e9 59 ff ff ff       	jmpq   4023da <urlencode+0x3a>
  402481:	c6 45 00 2b          	movb   $0x2b,0x0(%rbp)
  402485:	48 8d 6d 01          	lea    0x1(%rbp),%rbp
  402489:	e9 4c ff ff ff       	jmpq   4023da <urlencode+0x3a>
  40248e:	b8 ff ff ff ff       	mov    $0xffffffff,%eax
  402493:	48 8b 74 24 08       	mov    0x8(%rsp),%rsi
  402498:	64 48 33 34 25 28 00 	xor    %fs:0x28,%rsi
  40249f:	00 00 
  4024a1:	75 09                	jne    4024ac <urlencode+0x10c>
  4024a3:	48 83 c4 10          	add    $0x10,%rsp
  4024a7:	5b                   	pop    %rbx
  4024a8:	5d                   	pop    %rbp
  4024a9:	41 5c                	pop    %r12
  4024ab:	c3                   	retq   
  4024ac:	e8 2f e8 ff ff       	callq  400ce0 <__stack_chk_fail@plt>

00000000004024b1 <submitr>:
  4024b1:	41 57                	push   %r15
  4024b3:	41 56                	push   %r14
  4024b5:	41 55                	push   %r13
  4024b7:	41 54                	push   %r12
  4024b9:	55                   	push   %rbp
  4024ba:	53                   	push   %rbx
  4024bb:	48 81 ec 58 a0 00 00 	sub    $0xa058,%rsp
  4024c2:	49 89 fc             	mov    %rdi,%r12
  4024c5:	89 74 24 04          	mov    %esi,0x4(%rsp)
  4024c9:	49 89 d7             	mov    %rdx,%r15
  4024cc:	49 89 ce             	mov    %rcx,%r14
  4024cf:	4c 89 44 24 08       	mov    %r8,0x8(%rsp)
  4024d4:	4d 89 cd             	mov    %r9,%r13
  4024d7:	48 8b ac 24 90 a0 00 	mov    0xa090(%rsp),%rbp
  4024de:	00 
  4024df:	64 48 8b 04 25 28 00 	mov    %fs:0x28,%rax
  4024e6:	00 00 
  4024e8:	48 89 84 24 48 a0 00 	mov    %rax,0xa048(%rsp)
  4024ef:	00 
  4024f0:	31 c0                	xor    %eax,%eax
  4024f2:	c7 44 24 1c 00 00 00 	movl   $0x0,0x1c(%rsp)
  4024f9:	00 
  4024fa:	ba 00 00 00 00       	mov    $0x0,%edx
  4024ff:	be 01 00 00 00       	mov    $0x1,%esi
  402504:	bf 02 00 00 00       	mov    $0x2,%edi
  402509:	e8 62 e9 ff ff       	callq  400e70 <socket@plt>
  40250e:	85 c0                	test   %eax,%eax
  402510:	0f 88 9b 02 00 00    	js     4027b1 <submitr+0x300>
  402516:	89 c3                	mov    %eax,%ebx
  402518:	4c 89 e7             	mov    %r12,%rdi
  40251b:	e8 30 e8 ff ff       	callq  400d50 <gethostbyname@plt>
  402520:	48 85 c0             	test   %rax,%rax
  402523:	0f 84 d4 02 00 00    	je     4027fd <submitr+0x34c>
  402529:	48 c7 44 24 22 00 00 	movq   $0x0,0x22(%rsp)
  402530:	00 00 
  402532:	c7 44 24 2a 00 00 00 	movl   $0x0,0x2a(%rsp)
  402539:	00 
  40253a:	66 c7 44 24 2e 00 00 	movw   $0x0,0x2e(%rsp)
  402541:	66 c7 44 24 20 02 00 	movw   $0x2,0x20(%rsp)
  402548:	48 63 50 14          	movslq 0x14(%rax),%rdx
  40254c:	48 8b 40 18          	mov    0x18(%rax),%rax
  402550:	48 8b 30             	mov    (%rax),%rsi
  402553:	48 8d 7c 24 24       	lea    0x24(%rsp),%rdi
  402558:	b9 0c 00 00 00       	mov    $0xc,%ecx
  40255d:	e8 fe e7 ff ff       	callq  400d60 <__memmove_chk@plt>
  402562:	0f b7 44 24 04       	movzwl 0x4(%rsp),%eax
  402567:	66 c1 c8 08          	ror    $0x8,%ax
  40256b:	66 89 44 24 22       	mov    %ax,0x22(%rsp)
  402570:	ba 10 00 00 00       	mov    $0x10,%edx
  402575:	48 8d 74 24 20       	lea    0x20(%rsp),%rsi
  40257a:	89 df                	mov    %ebx,%edi
  40257c:	e8 bf e8 ff ff       	callq  400e40 <connect@plt>
  402581:	85 c0                	test   %eax,%eax
  402583:	0f 88 dc 02 00 00    	js     402865 <submitr+0x3b4>
  402589:	48 c7 c6 ff ff ff ff 	mov    $0xffffffffffffffff,%rsi
  402590:	b8 00 00 00 00       	mov    $0x0,%eax
  402595:	48 89 f1             	mov    %rsi,%rcx
  402598:	4c 89 ef             	mov    %r13,%rdi
  40259b:	f2 ae                	repnz scas %es:(%rdi),%al
  40259d:	48 89 ca             	mov    %rcx,%rdx
  4025a0:	48 f7 d2             	not    %rdx
  4025a3:	48 89 f1             	mov    %rsi,%rcx
  4025a6:	4c 89 ff             	mov    %r15,%rdi
  4025a9:	f2 ae                	repnz scas %es:(%rdi),%al
  4025ab:	48 f7 d1             	not    %rcx
  4025ae:	49 89 c8             	mov    %rcx,%r8
  4025b1:	48 89 f1             	mov    %rsi,%rcx
  4025b4:	4c 89 f7             	mov    %r14,%rdi
  4025b7:	f2 ae                	repnz scas %es:(%rdi),%al
  4025b9:	48 f7 d1             	not    %rcx
  4025bc:	4d 8d 44 08 fe       	lea    -0x2(%r8,%rcx,1),%r8
  4025c1:	48 89 f1             	mov    %rsi,%rcx
  4025c4:	48 8b 7c 24 08       	mov    0x8(%rsp),%rdi
  4025c9:	f2 ae                	repnz scas %es:(%rdi),%al
  4025cb:	48 89 c8             	mov    %rcx,%rax
  4025ce:	48 f7 d0             	not    %rax
  4025d1:	49 8d 4c 00 ff       	lea    -0x1(%r8,%rax,1),%rcx
  4025d6:	48 8d 44 52 fd       	lea    -0x3(%rdx,%rdx,2),%rax
  4025db:	48 8d 84 01 80 00 00 	lea    0x80(%rcx,%rax,1),%rax
  4025e2:	00 
  4025e3:	48 3d 00 20 00 00    	cmp    $0x2000,%rax
  4025e9:	0f 87 d0 02 00 00    	ja     4028bf <submitr+0x40e>
  4025ef:	48 8d b4 24 40 40 00 	lea    0x4040(%rsp),%rsi
  4025f6:	00 
  4025f7:	b9 00 04 00 00       	mov    $0x400,%ecx
  4025fc:	b8 00 00 00 00       	mov    $0x0,%eax
  402601:	48 89 f7             	mov    %rsi,%rdi
  402604:	f3 48 ab             	rep stos %rax,%es:(%rdi)
  402607:	4c 89 ef             	mov    %r13,%rdi
  40260a:	e8 91 fd ff ff       	callq  4023a0 <urlencode>
  40260f:	85 c0                	test   %eax,%eax
  402611:	0f 88 1b 03 00 00    	js     402932 <submitr+0x481>
  402617:	4c 8d ac 24 40 20 00 	lea    0x2040(%rsp),%r13
  40261e:	00 
  40261f:	41 54                	push   %r12
  402621:	48 8d 84 24 48 40 00 	lea    0x4048(%rsp),%rax
  402628:	00 
  402629:	50                   	push   %rax
  40262a:	4d 89 f9             	mov    %r15,%r9
  40262d:	4d 89 f0             	mov    %r14,%r8
  402630:	b9 f8 36 40 00       	mov    $0x4036f8,%ecx
  402635:	ba 00 20 00 00       	mov    $0x2000,%edx
  40263a:	be 01 00 00 00       	mov    $0x1,%esi
  40263f:	4c 89 ef             	mov    %r13,%rdi
  402642:	b8 00 00 00 00       	mov    $0x0,%eax
  402647:	e8 14 e8 ff ff       	callq  400e60 <__sprintf_chk@plt>
  40264c:	48 c7 c1 ff ff ff ff 	mov    $0xffffffffffffffff,%rcx
  402653:	b8 00 00 00 00       	mov    $0x0,%eax
  402658:	4c 89 ef             	mov    %r13,%rdi
  40265b:	f2 ae                	repnz scas %es:(%rdi),%al
  40265d:	48 89 ca             	mov    %rcx,%rdx
  402660:	48 f7 d2             	not    %rdx
  402663:	48 8d 52 ff          	lea    -0x1(%rdx),%rdx
  402667:	4c 89 ee             	mov    %r13,%rsi
  40266a:	89 df                	mov    %ebx,%edi
  40266c:	e8 a2 fb ff ff       	callq  402213 <rio_writen>
  402671:	48 83 c4 10          	add    $0x10,%rsp
  402675:	48 85 c0             	test   %rax,%rax
  402678:	0f 88 3f 03 00 00    	js     4029bd <submitr+0x50c>
  40267e:	89 de                	mov    %ebx,%esi
  402680:	48 8d 7c 24 30       	lea    0x30(%rsp),%rdi
  402685:	e8 49 fb ff ff       	callq  4021d3 <rio_readinitb>
  40268a:	ba 00 20 00 00       	mov    $0x2000,%edx
  40268f:	48 8d b4 24 40 20 00 	lea    0x2040(%rsp),%rsi
  402696:	00 
  402697:	48 8d 7c 24 30       	lea    0x30(%rsp),%rdi
  40269c:	e8 5b fc ff ff       	callq  4022fc <rio_readlineb>
  4026a1:	48 85 c0             	test   %rax,%rax
  4026a4:	0f 8e 82 03 00 00    	jle    402a2c <submitr+0x57b>
  4026aa:	4c 8d 84 24 40 80 00 	lea    0x8040(%rsp),%r8
  4026b1:	00 
  4026b2:	48 8d 4c 24 1c       	lea    0x1c(%rsp),%rcx
  4026b7:	48 8d 94 24 40 60 00 	lea    0x6040(%rsp),%rdx
  4026be:	00 
  4026bf:	be 6f 37 40 00       	mov    $0x40376f,%esi
  4026c4:	48 8d bc 24 40 20 00 	lea    0x2040(%rsp),%rdi
  4026cb:	00 
  4026cc:	b8 00 00 00 00       	mov    $0x0,%eax
  4026d1:	e8 ea e6 ff ff       	callq  400dc0 <__isoc99_sscanf@plt>
  4026d6:	48 8d b4 24 40 20 00 	lea    0x2040(%rsp),%rsi
  4026dd:	00 
  4026de:	bf 86 37 40 00       	mov    $0x403786,%edi
  4026e3:	b9 03 00 00 00       	mov    $0x3,%ecx
  4026e8:	f3 a6                	repz cmpsb %es:(%rdi),%ds:(%rsi)
  4026ea:	0f 97 c0             	seta   %al
  4026ed:	1c 00                	sbb    $0x0,%al
  4026ef:	84 c0                	test   %al,%al
  4026f1:	0f 84 b3 03 00 00    	je     402aaa <submitr+0x5f9>
  4026f7:	ba 00 20 00 00       	mov    $0x2000,%edx
  4026fc:	48 8d b4 24 40 20 00 	lea    0x2040(%rsp),%rsi
  402703:	00 
  402704:	48 8d 7c 24 30       	lea    0x30(%rsp),%rdi
  402709:	e8 ee fb ff ff       	callq  4022fc <rio_readlineb>
  40270e:	48 85 c0             	test   %rax,%rax
  402711:	7f c3                	jg     4026d6 <submitr+0x225>
  402713:	48 b8 45 72 72 6f 72 	movabs $0x43203a726f727245,%rax
  40271a:	3a 20 43 
  40271d:	48 ba 6c 69 65 6e 74 	movabs $0x6e7520746e65696c,%rdx
  402724:	20 75 6e 
  402727:	48 89 45 00          	mov    %rax,0x0(%rbp)
  40272b:	48 89 55 08          	mov    %rdx,0x8(%rbp)
  40272f:	48 b8 61 62 6c 65 20 	movabs $0x206f7420656c6261,%rax
  402736:	74 6f 20 
  402739:	48 ba 72 65 61 64 20 	movabs $0x6165682064616572,%rdx
  402740:	68 65 61 
  402743:	48 89 45 10          	mov    %rax,0x10(%rbp)
  402747:	48 89 55 18          	mov    %rdx,0x18(%rbp)
  40274b:	48 b8 64 65 72 73 20 	movabs $0x6f72662073726564,%rax
  402752:	66 72 6f 
  402755:	48 ba 6d 20 74 68 65 	movabs $0x657220656874206d,%rdx
  40275c:	20 72 65 
  40275f:	48 89 45 20          	mov    %rax,0x20(%rbp)
  402763:	48 89 55 28          	mov    %rdx,0x28(%rbp)
  402767:	48 b8 73 75 6c 74 20 	movabs $0x72657320746c7573,%rax
  40276e:	73 65 72 
  402771:	48 89 45 30          	mov    %rax,0x30(%rbp)
  402775:	c7 45 38 76 65 72 00 	movl   $0x726576,0x38(%rbp)
  40277c:	89 df                	mov    %ebx,%edi
  40277e:	e8 9d e5 ff ff       	callq  400d20 <close@plt>
  402783:	b8 ff ff ff ff       	mov    $0xffffffff,%eax
  402788:	48 8b 9c 24 48 a0 00 	mov    0xa048(%rsp),%rbx
  40278f:	00 
  402790:	64 48 33 1c 25 28 00 	xor    %fs:0x28,%rbx
  402797:	00 00 
  402799:	0f 85 76 04 00 00    	jne    402c15 <submitr+0x764>
  40279f:	48 81 c4 58 a0 00 00 	add    $0xa058,%rsp
  4027a6:	5b                   	pop    %rbx
  4027a7:	5d                   	pop    %rbp
  4027a8:	41 5c                	pop    %r12
  4027aa:	41 5d                	pop    %r13
  4027ac:	41 5e                	pop    %r14
  4027ae:	41 5f                	pop    %r15
  4027b0:	c3                   	retq   
  4027b1:	48 b8 45 72 72 6f 72 	movabs $0x43203a726f727245,%rax
  4027b8:	3a 20 43 
  4027bb:	48 ba 6c 69 65 6e 74 	movabs $0x6e7520746e65696c,%rdx
  4027c2:	20 75 6e 
  4027c5:	48 89 45 00          	mov    %rax,0x0(%rbp)
  4027c9:	48 89 55 08          	mov    %rdx,0x8(%rbp)
  4027cd:	48 b8 61 62 6c 65 20 	movabs $0x206f7420656c6261,%rax
  4027d4:	74 6f 20 
  4027d7:	48 ba 63 72 65 61 74 	movabs $0x7320657461657263,%rdx
  4027de:	65 20 73 
  4027e1:	48 89 45 10          	mov    %rax,0x10(%rbp)
  4027e5:	48 89 55 18          	mov    %rdx,0x18(%rbp)
  4027e9:	c7 45 20 6f 63 6b 65 	movl   $0x656b636f,0x20(%rbp)
  4027f0:	66 c7 45 24 74 00    	movw   $0x74,0x24(%rbp)
  4027f6:	b8 ff ff ff ff       	mov    $0xffffffff,%eax
  4027fb:	eb 8b                	jmp    402788 <submitr+0x2d7>
  4027fd:	48 b8 45 72 72 6f 72 	movabs $0x44203a726f727245,%rax
  402804:	3a 20 44 
  402807:	48 ba 4e 53 20 69 73 	movabs $0x6e7520736920534e,%rdx
  40280e:	20 75 6e 
  402811:	48 89 45 00          	mov    %rax,0x0(%rbp)
  402815:	48 89 55 08          	mov    %rdx,0x8(%rbp)
  402819:	48 b8 61 62 6c 65 20 	movabs $0x206f7420656c6261,%rax
  402820:	74 6f 20 
  402823:	48 ba 72 65 73 6f 6c 	movabs $0x2065766c6f736572,%rdx
  40282a:	76 65 20 
  40282d:	48 89 45 10          	mov    %rax,0x10(%rbp)
  402831:	48 89 55 18          	mov    %rdx,0x18(%rbp)
  402835:	48 b8 73 65 72 76 65 	movabs $0x6120726576726573,%rax
  40283c:	72 20 61 
  40283f:	48 89 45 20          	mov    %rax,0x20(%rbp)
  402843:	c7 45 28 64 64 72 65 	movl   $0x65726464,0x28(%rbp)
  40284a:	66 c7 45 2c 73 73    	movw   $0x7373,0x2c(%rbp)
  402850:	c6 45 2e 00          	movb   $0x0,0x2e(%rbp)
  402854:	89 df                	mov    %ebx,%edi
  402856:	e8 c5 e4 ff ff       	callq  400d20 <close@plt>
  40285b:	b8 ff ff ff ff       	mov    $0xffffffff,%eax
  402860:	e9 23 ff ff ff       	jmpq   402788 <submitr+0x2d7>
  402865:	48 b8 45 72 72 6f 72 	movabs $0x55203a726f727245,%rax
  40286c:	3a 20 55 
  40286f:	48 ba 6e 61 62 6c 65 	movabs $0x6f7420656c62616e,%rdx
  402876:	20 74 6f 
  402879:	48 89 45 00          	mov    %rax,0x0(%rbp)
  40287d:	48 89 55 08          	mov    %rdx,0x8(%rbp)
  402881:	48 b8 20 63 6f 6e 6e 	movabs $0x7463656e6e6f6320,%rax
  402888:	65 63 74 
  40288b:	48 ba 20 74 6f 20 74 	movabs $0x20656874206f7420,%rdx
  402892:	68 65 20 
  402895:	48 89 45 10          	mov    %rax,0x10(%rbp)
  402899:	48 89 55 18          	mov    %rdx,0x18(%rbp)
  40289d:	c7 45 20 73 65 72 76 	movl   $0x76726573,0x20(%rbp)
  4028a4:	66 c7 45 24 65 72    	movw   $0x7265,0x24(%rbp)
  4028aa:	c6 45 26 00          	movb   $0x0,0x26(%rbp)
  4028ae:	89 df                	mov    %ebx,%edi
  4028b0:	e8 6b e4 ff ff       	callq  400d20 <close@plt>
  4028b5:	b8 ff ff ff ff       	mov    $0xffffffff,%eax
  4028ba:	e9 c9 fe ff ff       	jmpq   402788 <submitr+0x2d7>
  4028bf:	48 b8 45 72 72 6f 72 	movabs $0x52203a726f727245,%rax
  4028c6:	3a 20 52 
  4028c9:	48 ba 65 73 75 6c 74 	movabs $0x747320746c757365,%rdx
  4028d0:	20 73 74 
  4028d3:	48 89 45 00          	mov    %rax,0x0(%rbp)
  4028d7:	48 89 55 08          	mov    %rdx,0x8(%rbp)
  4028db:	48 b8 72 69 6e 67 20 	movabs $0x6f6f7420676e6972,%rax
  4028e2:	74 6f 6f 
  4028e5:	48 ba 20 6c 61 72 67 	movabs $0x202e656772616c20,%rdx
  4028ec:	65 2e 20 
  4028ef:	48 89 45 10          	mov    %rax,0x10(%rbp)
  4028f3:	48 89 55 18          	mov    %rdx,0x18(%rbp)
  4028f7:	48 b8 49 6e 63 72 65 	movabs $0x6573616572636e49,%rax
  4028fe:	61 73 65 
  402901:	48 ba 20 53 55 42 4d 	movabs $0x5254494d42555320,%rdx
  402908:	49 54 52 
  40290b:	48 89 45 20          	mov    %rax,0x20(%rbp)
  40290f:	48 89 55 28          	mov    %rdx,0x28(%rbp)
  402913:	48 b8 5f 4d 41 58 42 	movabs $0x46554258414d5f,%rax
  40291a:	55 46 00 
  40291d:	48 89 45 30          	mov    %rax,0x30(%rbp)
  402921:	89 df                	mov    %ebx,%edi
  402923:	e8 f8 e3 ff ff       	callq  400d20 <close@plt>
  402928:	b8 ff ff ff ff       	mov    $0xffffffff,%eax
  40292d:	e9 56 fe ff ff       	jmpq   402788 <submitr+0x2d7>
  402932:	48 b8 45 72 72 6f 72 	movabs $0x52203a726f727245,%rax
  402939:	3a 20 52 
  40293c:	48 ba 65 73 75 6c 74 	movabs $0x747320746c757365,%rdx
  402943:	20 73 74 
  402946:	48 89 45 00          	mov    %rax,0x0(%rbp)
  40294a:	48 89 55 08          	mov    %rdx,0x8(%rbp)
  40294e:	48 b8 72 69 6e 67 20 	movabs $0x6e6f6320676e6972,%rax
  402955:	63 6f 6e 
  402958:	48 ba 74 61 69 6e 73 	movabs $0x6e6120736e696174,%rdx
  40295f:	20 61 6e 
  402962:	48 89 45 10          	mov    %rax,0x10(%rbp)
  402966:	48 89 55 18          	mov    %rdx,0x18(%rbp)
  40296a:	48 b8 20 69 6c 6c 65 	movabs $0x6c6167656c6c6920,%rax
  402971:	67 61 6c 
  402974:	48 ba 20 6f 72 20 75 	movabs $0x72706e7520726f20,%rdx
  40297b:	6e 70 72 
  40297e:	48 89 45 20          	mov    %rax,0x20(%rbp)
  402982:	48 89 55 28          	mov    %rdx,0x28(%rbp)
  402986:	48 b8 69 6e 74 61 62 	movabs $0x20656c6261746e69,%rax
  40298d:	6c 65 20 
  402990:	48 ba 63 68 61 72 61 	movabs $0x6574636172616863,%rdx
  402997:	63 74 65 
  40299a:	48 89 45 30          	mov    %rax,0x30(%rbp)
  40299e:	48 89 55 38          	mov    %rdx,0x38(%rbp)
  4029a2:	66 c7 45 40 72 2e    	movw   $0x2e72,0x40(%rbp)
  4029a8:	c6 45 42 00          	movb   $0x0,0x42(%rbp)
  4029ac:	89 df                	mov    %ebx,%edi
  4029ae:	e8 6d e3 ff ff       	callq  400d20 <close@plt>
  4029b3:	b8 ff ff ff ff       	mov    $0xffffffff,%eax
  4029b8:	e9 cb fd ff ff       	jmpq   402788 <submitr+0x2d7>
  4029bd:	48 b8 45 72 72 6f 72 	movabs $0x43203a726f727245,%rax
  4029c4:	3a 20 43 
  4029c7:	48 ba 6c 69 65 6e 74 	movabs $0x6e7520746e65696c,%rdx
  4029ce:	20 75 6e 
  4029d1:	48 89 45 00          	mov    %rax,0x0(%rbp)
  4029d5:	48 89 55 08          	mov    %rdx,0x8(%rbp)
  4029d9:	48 b8 61 62 6c 65 20 	movabs $0x206f7420656c6261,%rax
  4029e0:	74 6f 20 
  4029e3:	48 ba 77 72 69 74 65 	movabs $0x6f74206574697277,%rdx
  4029ea:	20 74 6f 
  4029ed:	48 89 45 10          	mov    %rax,0x10(%rbp)
  4029f1:	48 89 55 18          	mov    %rdx,0x18(%rbp)
  4029f5:	48 b8 20 74 68 65 20 	movabs $0x7365722065687420,%rax
  4029fc:	72 65 73 
  4029ff:	48 ba 75 6c 74 20 73 	movabs $0x7672657320746c75,%rdx
  402a06:	65 72 76 
  402a09:	48 89 45 20          	mov    %rax,0x20(%rbp)
  402a0d:	48 89 55 28          	mov    %rdx,0x28(%rbp)
  402a11:	66 c7 45 30 65 72    	movw   $0x7265,0x30(%rbp)
  402a17:	c6 45 32 00          	movb   $0x0,0x32(%rbp)
  402a1b:	89 df                	mov    %ebx,%edi
  402a1d:	e8 fe e2 ff ff       	callq  400d20 <close@plt>
  402a22:	b8 ff ff ff ff       	mov    $0xffffffff,%eax
  402a27:	e9 5c fd ff ff       	jmpq   402788 <submitr+0x2d7>
  402a2c:	48 b8 45 72 72 6f 72 	movabs $0x43203a726f727245,%rax
  402a33:	3a 20 43 
  402a36:	48 ba 6c 69 65 6e 74 	movabs $0x6e7520746e65696c,%rdx
  402a3d:	20 75 6e 
  402a40:	48 89 45 00          	mov    %rax,0x0(%rbp)
  402a44:	48 89 55 08          	mov    %rdx,0x8(%rbp)
  402a48:	48 b8 61 62 6c 65 20 	movabs $0x206f7420656c6261,%rax
  402a4f:	74 6f 20 
  402a52:	48 ba 72 65 61 64 20 	movabs $0x7269662064616572,%rdx
  402a59:	66 69 72 
  402a5c:	48 89 45 10          	mov    %rax,0x10(%rbp)
  402a60:	48 89 55 18          	mov    %rdx,0x18(%rbp)
  402a64:	48 b8 73 74 20 68 65 	movabs $0x6564616568207473,%rax
  402a6b:	61 64 65 
  402a6e:	48 ba 72 20 66 72 6f 	movabs $0x72206d6f72662072,%rdx
  402a75:	6d 20 72 
  402a78:	48 89 45 20          	mov    %rax,0x20(%rbp)
  402a7c:	48 89 55 28          	mov    %rdx,0x28(%rbp)
  402a80:	48 b8 65 73 75 6c 74 	movabs $0x657320746c757365,%rax
  402a87:	20 73 65 
  402a8a:	48 89 45 30          	mov    %rax,0x30(%rbp)
  402a8e:	c7 45 38 72 76 65 72 	movl   $0x72657672,0x38(%rbp)
  402a95:	c6 45 3c 00          	movb   $0x0,0x3c(%rbp)
  402a99:	89 df                	mov    %ebx,%edi
  402a9b:	e8 80 e2 ff ff       	callq  400d20 <close@plt>
  402aa0:	b8 ff ff ff ff       	mov    $0xffffffff,%eax
  402aa5:	e9 de fc ff ff       	jmpq   402788 <submitr+0x2d7>
  402aaa:	ba 00 20 00 00       	mov    $0x2000,%edx
  402aaf:	48 8d b4 24 40 20 00 	lea    0x2040(%rsp),%rsi
  402ab6:	00 
  402ab7:	48 8d 7c 24 30       	lea    0x30(%rsp),%rdi
  402abc:	e8 3b f8 ff ff       	callq  4022fc <rio_readlineb>
  402ac1:	48 85 c0             	test   %rax,%rax
  402ac4:	0f 8e 90 00 00 00    	jle    402b5a <submitr+0x6a9>
  402aca:	44 8b 44 24 1c       	mov    0x1c(%rsp),%r8d
  402acf:	41 81 f8 c8 00 00 00 	cmp    $0xc8,%r8d
  402ad6:	0f 85 02 01 00 00    	jne    402bde <submitr+0x72d>
  402adc:	48 8d b4 24 40 20 00 	lea    0x2040(%rsp),%rsi
  402ae3:	00 
  402ae4:	48 89 ef             	mov    %rbp,%rdi
  402ae7:	e8 c4 e1 ff ff       	callq  400cb0 <strcpy@plt>
  402aec:	89 df                	mov    %ebx,%edi
  402aee:	e8 2d e2 ff ff       	callq  400d20 <close@plt>
  402af3:	bf 80 37 40 00       	mov    $0x403780,%edi
  402af8:	b9 04 00 00 00       	mov    $0x4,%ecx
  402afd:	48 89 ee             	mov    %rbp,%rsi
  402b00:	f3 a6                	repz cmpsb %es:(%rdi),%ds:(%rsi)
  402b02:	0f 97 c0             	seta   %al
  402b05:	1c 00                	sbb    $0x0,%al
  402b07:	0f be c0             	movsbl %al,%eax
  402b0a:	85 c0                	test   %eax,%eax
  402b0c:	0f 84 76 fc ff ff    	je     402788 <submitr+0x2d7>
  402b12:	bf 84 37 40 00       	mov    $0x403784,%edi
  402b17:	b9 05 00 00 00       	mov    $0x5,%ecx
  402b1c:	48 89 ee             	mov    %rbp,%rsi
  402b1f:	f3 a6                	repz cmpsb %es:(%rdi),%ds:(%rsi)
  402b21:	0f 97 c0             	seta   %al
  402b24:	1c 00                	sbb    $0x0,%al
  402b26:	0f be c0             	movsbl %al,%eax
  402b29:	85 c0                	test   %eax,%eax
  402b2b:	0f 84 57 fc ff ff    	je     402788 <submitr+0x2d7>
  402b31:	bf 89 37 40 00       	mov    $0x403789,%edi
  402b36:	b9 03 00 00 00       	mov    $0x3,%ecx
  402b3b:	48 89 ee             	mov    %rbp,%rsi
  402b3e:	f3 a6                	repz cmpsb %es:(%rdi),%ds:(%rsi)
  402b40:	0f 97 c0             	seta   %al
  402b43:	1c 00                	sbb    $0x0,%al
  402b45:	0f be c0             	movsbl %al,%eax
  402b48:	85 c0                	test   %eax,%eax
  402b4a:	0f 84 38 fc ff ff    	je     402788 <submitr+0x2d7>
  402b50:	b8 ff ff ff ff       	mov    $0xffffffff,%eax
  402b55:	e9 2e fc ff ff       	jmpq   402788 <submitr+0x2d7>
  402b5a:	48 b8 45 72 72 6f 72 	movabs $0x43203a726f727245,%rax
  402b61:	3a 20 43 
  402b64:	48 ba 6c 69 65 6e 74 	movabs $0x6e7520746e65696c,%rdx
  402b6b:	20 75 6e 
  402b6e:	48 89 45 00          	mov    %rax,0x0(%rbp)
  402b72:	48 89 55 08          	mov    %rdx,0x8(%rbp)
  402b76:	48 b8 61 62 6c 65 20 	movabs $0x206f7420656c6261,%rax
  402b7d:	74 6f 20 
  402b80:	48 ba 72 65 61 64 20 	movabs $0x6174732064616572,%rdx
  402b87:	73 74 61 
  402b8a:	48 89 45 10          	mov    %rax,0x10(%rbp)
  402b8e:	48 89 55 18          	mov    %rdx,0x18(%rbp)
  402b92:	48 b8 74 75 73 20 6d 	movabs $0x7373656d20737574,%rax
  402b99:	65 73 73 
  402b9c:	48 ba 61 67 65 20 66 	movabs $0x6d6f726620656761,%rdx
  402ba3:	72 6f 6d 
  402ba6:	48 89 45 20          	mov    %rax,0x20(%rbp)
  402baa:	48 89 55 28          	mov    %rdx,0x28(%rbp)
  402bae:	48 b8 20 72 65 73 75 	movabs $0x20746c7573657220,%rax
  402bb5:	6c 74 20 
  402bb8:	48 89 45 30          	mov    %rax,0x30(%rbp)
  402bbc:	c7 45 38 73 65 72 76 	movl   $0x76726573,0x38(%rbp)
  402bc3:	66 c7 45 3c 65 72    	movw   $0x7265,0x3c(%rbp)
  402bc9:	c6 45 3e 00          	movb   $0x0,0x3e(%rbp)
  402bcd:	89 df                	mov    %ebx,%edi
  402bcf:	e8 4c e1 ff ff       	callq  400d20 <close@plt>
  402bd4:	b8 ff ff ff ff       	mov    $0xffffffff,%eax
  402bd9:	e9 aa fb ff ff       	jmpq   402788 <submitr+0x2d7>
  402bde:	4c 8d 8c 24 40 80 00 	lea    0x8040(%rsp),%r9
  402be5:	00 
  402be6:	b9 38 37 40 00       	mov    $0x403738,%ecx
  402beb:	48 c7 c2 ff ff ff ff 	mov    $0xffffffffffffffff,%rdx
  402bf2:	be 01 00 00 00       	mov    $0x1,%esi
  402bf7:	48 89 ef             	mov    %rbp,%rdi
  402bfa:	b8 00 00 00 00       	mov    $0x0,%eax
  402bff:	e8 5c e2 ff ff       	callq  400e60 <__sprintf_chk@plt>
  402c04:	89 df                	mov    %ebx,%edi
  402c06:	e8 15 e1 ff ff       	callq  400d20 <close@plt>
  402c0b:	b8 ff ff ff ff       	mov    $0xffffffff,%eax
  402c10:	e9 73 fb ff ff       	jmpq   402788 <submitr+0x2d7>
  402c15:	e8 c6 e0 ff ff       	callq  400ce0 <__stack_chk_fail@plt>

0000000000402c1a <init_timeout>:
  402c1a:	85 ff                	test   %edi,%edi
  402c1c:	74 26                	je     402c44 <init_timeout+0x2a>
  402c1e:	53                   	push   %rbx
  402c1f:	89 fb                	mov    %edi,%ebx
  402c21:	85 ff                	test   %edi,%edi
  402c23:	78 18                	js     402c3d <init_timeout+0x23>
  402c25:	be e5 21 40 00       	mov    $0x4021e5,%esi
  402c2a:	bf 0e 00 00 00       	mov    $0xe,%edi
  402c2f:	e8 0c e1 ff ff       	callq  400d40 <signal@plt>
  402c34:	89 df                	mov    %ebx,%edi
  402c36:	e8 d5 e0 ff ff       	callq  400d10 <alarm@plt>
  402c3b:	5b                   	pop    %rbx
  402c3c:	c3                   	retq   
  402c3d:	bb 00 00 00 00       	mov    $0x0,%ebx
  402c42:	eb e1                	jmp    402c25 <init_timeout+0xb>
  402c44:	f3 c3                	repz retq 

0000000000402c46 <init_driver>:
  402c46:	55                   	push   %rbp
  402c47:	53                   	push   %rbx
  402c48:	48 83 ec 28          	sub    $0x28,%rsp
  402c4c:	48 89 fd             	mov    %rdi,%rbp
  402c4f:	64 48 8b 04 25 28 00 	mov    %fs:0x28,%rax
  402c56:	00 00 
  402c58:	48 89 44 24 18       	mov    %rax,0x18(%rsp)
  402c5d:	31 c0                	xor    %eax,%eax
  402c5f:	be 01 00 00 00       	mov    $0x1,%esi
  402c64:	bf 0d 00 00 00       	mov    $0xd,%edi
  402c69:	e8 d2 e0 ff ff       	callq  400d40 <signal@plt>
  402c6e:	be 01 00 00 00       	mov    $0x1,%esi
  402c73:	bf 1d 00 00 00       	mov    $0x1d,%edi
  402c78:	e8 c3 e0 ff ff       	callq  400d40 <signal@plt>
  402c7d:	be 01 00 00 00       	mov    $0x1,%esi
  402c82:	bf 1d 00 00 00       	mov    $0x1d,%edi
  402c87:	e8 b4 e0 ff ff       	callq  400d40 <signal@plt>
  402c8c:	ba 00 00 00 00       	mov    $0x0,%edx
  402c91:	be 01 00 00 00       	mov    $0x1,%esi
  402c96:	bf 02 00 00 00       	mov    $0x2,%edi
  402c9b:	e8 d0 e1 ff ff       	callq  400e70 <socket@plt>
  402ca0:	85 c0                	test   %eax,%eax
  402ca2:	0f 88 9c 00 00 00    	js     402d44 <init_driver+0xfe>
  402ca8:	89 c3                	mov    %eax,%ebx
  402caa:	bf 8c 37 40 00       	mov    $0x40378c,%edi
  402caf:	e8 9c e0 ff ff       	callq  400d50 <gethostbyname@plt>
  402cb4:	48 85 c0             	test   %rax,%rax
  402cb7:	0f 84 d3 00 00 00    	je     402d90 <init_driver+0x14a>
  402cbd:	48 c7 44 24 02 00 00 	movq   $0x0,0x2(%rsp)
  402cc4:	00 00 
  402cc6:	c7 44 24 0a 00 00 00 	movl   $0x0,0xa(%rsp)
  402ccd:	00 
  402cce:	66 c7 44 24 0e 00 00 	movw   $0x0,0xe(%rsp)
  402cd5:	66 c7 04 24 02 00    	movw   $0x2,(%rsp)
  402cdb:	48 63 50 14          	movslq 0x14(%rax),%rdx
  402cdf:	48 8b 40 18          	mov    0x18(%rax),%rax
  402ce3:	48 8b 30             	mov    (%rax),%rsi
  402ce6:	48 8d 7c 24 04       	lea    0x4(%rsp),%rdi
  402ceb:	b9 0c 00 00 00       	mov    $0xc,%ecx
  402cf0:	e8 6b e0 ff ff       	callq  400d60 <__memmove_chk@plt>
  402cf5:	66 c7 44 24 02 3c 9a 	movw   $0x9a3c,0x2(%rsp)
  402cfc:	ba 10 00 00 00       	mov    $0x10,%edx
  402d01:	48 89 e6             	mov    %rsp,%rsi
  402d04:	89 df                	mov    %ebx,%edi
  402d06:	e8 35 e1 ff ff       	callq  400e40 <connect@plt>
  402d0b:	85 c0                	test   %eax,%eax
  402d0d:	0f 88 e5 00 00 00    	js     402df8 <init_driver+0x1b2>
  402d13:	89 df                	mov    %ebx,%edi
  402d15:	e8 06 e0 ff ff       	callq  400d20 <close@plt>
  402d1a:	66 c7 45 00 4f 4b    	movw   $0x4b4f,0x0(%rbp)
  402d20:	c6 45 02 00          	movb   $0x0,0x2(%rbp)
  402d24:	b8 00 00 00 00       	mov    $0x0,%eax
  402d29:	48 8b 4c 24 18       	mov    0x18(%rsp),%rcx
  402d2e:	64 48 33 0c 25 28 00 	xor    %fs:0x28,%rcx
  402d35:	00 00 
  402d37:	0f 85 0e 01 00 00    	jne    402e4b <init_driver+0x205>
  402d3d:	48 83 c4 28          	add    $0x28,%rsp
  402d41:	5b                   	pop    %rbx
  402d42:	5d                   	pop    %rbp
  402d43:	c3                   	retq   
  402d44:	48 b8 45 72 72 6f 72 	movabs $0x43203a726f727245,%rax
  402d4b:	3a 20 43 
  402d4e:	48 ba 6c 69 65 6e 74 	movabs $0x6e7520746e65696c,%rdx
  402d55:	20 75 6e 
  402d58:	48 89 45 00          	mov    %rax,0x0(%rbp)
  402d5c:	48 89 55 08          	mov    %rdx,0x8(%rbp)
  402d60:	48 b8 61 62 6c 65 20 	movabs $0x206f7420656c6261,%rax
  402d67:	74 6f 20 
  402d6a:	48 ba 63 72 65 61 74 	movabs $0x7320657461657263,%rdx
  402d71:	65 20 73 
  402d74:	48 89 45 10          	mov    %rax,0x10(%rbp)
  402d78:	48 89 55 18          	mov    %rdx,0x18(%rbp)
  402d7c:	c7 45 20 6f 63 6b 65 	movl   $0x656b636f,0x20(%rbp)
  402d83:	66 c7 45 24 74 00    	movw   $0x74,0x24(%rbp)
  402d89:	b8 ff ff ff ff       	mov    $0xffffffff,%eax
  402d8e:	eb 99                	jmp    402d29 <init_driver+0xe3>
  402d90:	48 b8 45 72 72 6f 72 	movabs $0x44203a726f727245,%rax
  402d97:	3a 20 44 
  402d9a:	48 ba 4e 53 20 69 73 	movabs $0x6e7520736920534e,%rdx
  402da1:	20 75 6e 
  402da4:	48 89 45 00          	mov    %rax,0x0(%rbp)
  402da8:	48 89 55 08          	mov    %rdx,0x8(%rbp)
  402dac:	48 b8 61 62 6c 65 20 	movabs $0x206f7420656c6261,%rax
  402db3:	74 6f 20 
  402db6:	48 ba 72 65 73 6f 6c 	movabs $0x2065766c6f736572,%rdx
  402dbd:	76 65 20 
  402dc0:	48 89 45 10          	mov    %rax,0x10(%rbp)
  402dc4:	48 89 55 18          	mov    %rdx,0x18(%rbp)
  402dc8:	48 b8 73 65 72 76 65 	movabs $0x6120726576726573,%rax
  402dcf:	72 20 61 
  402dd2:	48 89 45 20          	mov    %rax,0x20(%rbp)
  402dd6:	c7 45 28 64 64 72 65 	movl   $0x65726464,0x28(%rbp)
  402ddd:	66 c7 45 2c 73 73    	movw   $0x7373,0x2c(%rbp)
  402de3:	c6 45 2e 00          	movb   $0x0,0x2e(%rbp)
  402de7:	89 df                	mov    %ebx,%edi
  402de9:	e8 32 df ff ff       	callq  400d20 <close@plt>
  402dee:	b8 ff ff ff ff       	mov    $0xffffffff,%eax
  402df3:	e9 31 ff ff ff       	jmpq   402d29 <init_driver+0xe3>
  402df8:	48 b8 45 72 72 6f 72 	movabs $0x55203a726f727245,%rax
  402dff:	3a 20 55 
  402e02:	48 ba 6e 61 62 6c 65 	movabs $0x6f7420656c62616e,%rdx
  402e09:	20 74 6f 
  402e0c:	48 89 45 00          	mov    %rax,0x0(%rbp)
  402e10:	48 89 55 08          	mov    %rdx,0x8(%rbp)
  402e14:	48 b8 20 63 6f 6e 6e 	movabs $0x7463656e6e6f6320,%rax
  402e1b:	65 63 74 
  402e1e:	48 ba 20 74 6f 20 73 	movabs $0x76726573206f7420,%rdx
  402e25:	65 72 76 
  402e28:	48 89 45 10          	mov    %rax,0x10(%rbp)
  402e2c:	48 89 55 18          	mov    %rdx,0x18(%rbp)
  402e30:	66 c7 45 20 65 72    	movw   $0x7265,0x20(%rbp)
  402e36:	c6 45 22 00          	movb   $0x0,0x22(%rbp)
  402e3a:	89 df                	mov    %ebx,%edi
  402e3c:	e8 df de ff ff       	callq  400d20 <close@plt>
  402e41:	b8 ff ff ff ff       	mov    $0xffffffff,%eax
  402e46:	e9 de fe ff ff       	jmpq   402d29 <init_driver+0xe3>
  402e4b:	e8 90 de ff ff       	callq  400ce0 <__stack_chk_fail@plt>

0000000000402e50 <driver_post>:
  402e50:	53                   	push   %rbx
  402e51:	4c 89 cb             	mov    %r9,%rbx
  402e54:	45 85 c0             	test   %r8d,%r8d
  402e57:	75 18                	jne    402e71 <driver_post+0x21>
  402e59:	48 85 ff             	test   %rdi,%rdi
  402e5c:	74 05                	je     402e63 <driver_post+0x13>
  402e5e:	80 3f 00             	cmpb   $0x0,(%rdi)
  402e61:	75 35                	jne    402e98 <driver_post+0x48>
  402e63:	66 c7 03 4f 4b       	movw   $0x4b4f,(%rbx)
  402e68:	c6 43 02 00          	movb   $0x0,0x2(%rbx)
  402e6c:	44 89 c0             	mov    %r8d,%eax
  402e6f:	5b                   	pop    %rbx
  402e70:	c3                   	retq   
  402e71:	48 89 ca             	mov    %rcx,%rdx
  402e74:	be a4 37 40 00       	mov    $0x4037a4,%esi
  402e79:	bf 01 00 00 00       	mov    $0x1,%edi
  402e7e:	b8 00 00 00 00       	mov    $0x0,%eax
  402e83:	e8 58 df ff ff       	callq  400de0 <__printf_chk@plt>
  402e88:	66 c7 03 4f 4b       	movw   $0x4b4f,(%rbx)
  402e8d:	c6 43 02 00          	movb   $0x0,0x2(%rbx)
  402e91:	b8 00 00 00 00       	mov    $0x0,%eax
  402e96:	eb d7                	jmp    402e6f <driver_post+0x1f>
  402e98:	48 83 ec 08          	sub    $0x8,%rsp
  402e9c:	41 51                	push   %r9
  402e9e:	49 89 c9             	mov    %rcx,%r9
  402ea1:	49 89 d0             	mov    %rdx,%r8
  402ea4:	48 89 f9             	mov    %rdi,%rcx
  402ea7:	48 89 f2             	mov    %rsi,%rdx
  402eaa:	be 9a 3c 00 00       	mov    $0x3c9a,%esi
  402eaf:	bf 8c 37 40 00       	mov    $0x40378c,%edi
  402eb4:	e8 f8 f5 ff ff       	callq  4024b1 <submitr>
  402eb9:	48 83 c4 10          	add    $0x10,%rsp
  402ebd:	eb b0                	jmp    402e6f <driver_post+0x1f>

0000000000402ebf <check>:
  402ebf:	89 f8                	mov    %edi,%eax
  402ec1:	c1 e8 1c             	shr    $0x1c,%eax
  402ec4:	85 c0                	test   %eax,%eax
  402ec6:	74 1d                	je     402ee5 <check+0x26>
  402ec8:	b9 00 00 00 00       	mov    $0x0,%ecx
  402ecd:	83 f9 1f             	cmp    $0x1f,%ecx
  402ed0:	7f 0d                	jg     402edf <check+0x20>
  402ed2:	89 f8                	mov    %edi,%eax
  402ed4:	d3 e8                	shr    %cl,%eax
  402ed6:	3c 0a                	cmp    $0xa,%al
  402ed8:	74 11                	je     402eeb <check+0x2c>
  402eda:	83 c1 08             	add    $0x8,%ecx
  402edd:	eb ee                	jmp    402ecd <check+0xe>
  402edf:	b8 01 00 00 00       	mov    $0x1,%eax
  402ee4:	c3                   	retq   
  402ee5:	b8 00 00 00 00       	mov    $0x0,%eax
  402eea:	c3                   	retq   
  402eeb:	b8 00 00 00 00       	mov    $0x0,%eax
  402ef0:	c3                   	retq   

0000000000402ef1 <gencookie>:
  402ef1:	53                   	push   %rbx
  402ef2:	83 c7 01             	add    $0x1,%edi
  402ef5:	e8 96 dd ff ff       	callq  400c90 <srandom@plt>
  402efa:	e8 a1 de ff ff       	callq  400da0 <random@plt>
  402eff:	89 c3                	mov    %eax,%ebx
  402f01:	89 c7                	mov    %eax,%edi
  402f03:	e8 b7 ff ff ff       	callq  402ebf <check>
  402f08:	85 c0                	test   %eax,%eax
  402f0a:	74 ee                	je     402efa <gencookie+0x9>
  402f0c:	89 d8                	mov    %ebx,%eax
  402f0e:	5b                   	pop    %rbx
  402f0f:	c3                   	retq   

0000000000402f10 <__libc_csu_init>:
  402f10:	41 57                	push   %r15
  402f12:	41 56                	push   %r14
  402f14:	49 89 d7             	mov    %rdx,%r15
  402f17:	41 55                	push   %r13
  402f19:	41 54                	push   %r12
  402f1b:	4c 8d 25 ee 1e 20 00 	lea    0x201eee(%rip),%r12        # 604e10 <__frame_dummy_init_array_entry>
  402f22:	55                   	push   %rbp
  402f23:	48 8d 2d ee 1e 20 00 	lea    0x201eee(%rip),%rbp        # 604e18 <__init_array_end>
  402f2a:	53                   	push   %rbx
  402f2b:	41 89 fd             	mov    %edi,%r13d
  402f2e:	49 89 f6             	mov    %rsi,%r14
  402f31:	4c 29 e5             	sub    %r12,%rbp
  402f34:	48 83 ec 08          	sub    $0x8,%rsp
  402f38:	48 c1 fd 03          	sar    $0x3,%rbp
  402f3c:	e8 07 dd ff ff       	callq  400c48 <_init>
  402f41:	48 85 ed             	test   %rbp,%rbp
  402f44:	74 20                	je     402f66 <__libc_csu_init+0x56>
  402f46:	31 db                	xor    %ebx,%ebx
  402f48:	0f 1f 84 00 00 00 00 	nopl   0x0(%rax,%rax,1)
  402f4f:	00 
  402f50:	4c 89 fa             	mov    %r15,%rdx
  402f53:	4c 89 f6             	mov    %r14,%rsi
  402f56:	44 89 ef             	mov    %r13d,%edi
  402f59:	41 ff 14 dc          	callq  *(%r12,%rbx,8)
  402f5d:	48 83 c3 01          	add    $0x1,%rbx
  402f61:	48 39 dd             	cmp    %rbx,%rbp
  402f64:	75 ea                	jne    402f50 <__libc_csu_init+0x40>
  402f66:	48 83 c4 08          	add    $0x8,%rsp
  402f6a:	5b                   	pop    %rbx
  402f6b:	5d                   	pop    %rbp
  402f6c:	41 5c                	pop    %r12
  402f6e:	41 5d                	pop    %r13
  402f70:	41 5e                	pop    %r14
  402f72:	41 5f                	pop    %r15
  402f74:	c3                   	retq   
  402f75:	90                   	nop
  402f76:	66 2e 0f 1f 84 00 00 	nopw   %cs:0x0(%rax,%rax,1)
  402f7d:	00 00 00 

0000000000402f80 <__libc_csu_fini>:
  402f80:	f3 c3                	repz retq 

Disassembly of section .fini:

0000000000402f84 <_fini>:
  402f84:	48 83 ec 08          	sub    $0x8,%rsp
  402f88:	48 83 c4 08          	add    $0x8,%rsp
  402f8c:	c3                   	retq   
